
binarization_O0.elf:     file format elf32-littleriscv


Disassembly of section .text:

00010094 <exit>:
   10094:	ff010113          	add	sp,sp,-16
   10098:	00000593          	li	a1,0
   1009c:	00812423          	sw	s0,8(sp)
   100a0:	00112623          	sw	ra,12(sp)
   100a4:	00050413          	mv	s0,a0
   100a8:	78d000ef          	jal	11034 <__call_exitprocs>
   100ac:	f4c1a783          	lw	a5,-180(gp) # 2391c <__stdio_exit_handler>
   100b0:	00078463          	beqz	a5,100b8 <exit+0x24>
   100b4:	000780e7          	jalr	a5
   100b8:	00040513          	mv	a0,s0
   100bc:	6210d0ef          	jal	1dedc <_exit>

000100c0 <register_fini>:
   100c0:	00000793          	li	a5,0
   100c4:	00078863          	beqz	a5,100d4 <register_fini+0x14>
   100c8:	00001517          	auipc	a0,0x1
   100cc:	d2050513          	add	a0,a0,-736 # 10de8 <__libc_fini_array>
   100d0:	31c0006f          	j	103ec <atexit>
   100d4:	00008067          	ret

000100d8 <_start>:
   100d8:	00014197          	auipc	gp,0x14
   100dc:	8f818193          	add	gp,gp,-1800 # 239d0 <__global_pointer$>
   100e0:	f4818513          	add	a0,gp,-184 # 23918 <completed.1>
   100e4:	54018613          	add	a2,gp,1344 # 23f10 <__BSS_END__>
   100e8:	40a60633          	sub	a2,a2,a0
   100ec:	00000593          	li	a1,0
   100f0:	585000ef          	jal	10e74 <memset>
   100f4:	00001517          	auipc	a0,0x1
   100f8:	cf450513          	add	a0,a0,-780 # 10de8 <__libc_fini_array>
   100fc:	2f0000ef          	jal	103ec <atexit>
   10100:	455000ef          	jal	10d54 <__libc_init_array>
   10104:	00012503          	lw	a0,0(sp)
   10108:	00410593          	add	a1,sp,4
   1010c:	00000613          	li	a2,0
   10110:	15c000ef          	jal	1026c <main>
   10114:	f81ff06f          	j	10094 <exit>

00010118 <__do_global_dtors_aux>:
   10118:	ff010113          	add	sp,sp,-16
   1011c:	00812423          	sw	s0,8(sp)
   10120:	f4818413          	add	s0,gp,-184 # 23918 <completed.1>
   10124:	00044783          	lbu	a5,0(s0)
   10128:	00112623          	sw	ra,12(sp)
   1012c:	02079263          	bnez	a5,10150 <__do_global_dtors_aux+0x38>
   10130:	00000793          	li	a5,0
   10134:	00078a63          	beqz	a5,10148 <__do_global_dtors_aux+0x30>
   10138:	00013517          	auipc	a0,0x13
   1013c:	ec850513          	add	a0,a0,-312 # 23000 <__EH_FRAME_BEGIN__>
   10140:	00000097          	auipc	ra,0x0
   10144:	000000e7          	jalr	zero # 0 <exit-0x10094>
   10148:	00100793          	li	a5,1
   1014c:	00f40023          	sb	a5,0(s0)
   10150:	00c12083          	lw	ra,12(sp)
   10154:	00812403          	lw	s0,8(sp)
   10158:	01010113          	add	sp,sp,16
   1015c:	00008067          	ret

00010160 <frame_dummy>:
   10160:	00000793          	li	a5,0
   10164:	00078c63          	beqz	a5,1017c <frame_dummy+0x1c>
   10168:	f9018593          	add	a1,gp,-112 # 23960 <object.0>
   1016c:	00013517          	auipc	a0,0x13
   10170:	e9450513          	add	a0,a0,-364 # 23000 <__EH_FRAME_BEGIN__>
   10174:	00000317          	auipc	t1,0x0
   10178:	00000067          	jr	zero # 0 <exit-0x10094>
   1017c:	00008067          	ret

00010180 <count_leading_zeros_32>:
   10180:	fe010113          	add	sp,sp,-32
   10184:	00812e23          	sw	s0,28(sp)
   10188:	02010413          	add	s0,sp,32
   1018c:	00050793          	mv	a5,a0
   10190:	fef407a3          	sb	a5,-17(s0)
   10194:	fef44783          	lbu	a5,-17(s0)
   10198:	0017d793          	srl	a5,a5,0x1
   1019c:	0ff7f793          	zext.b	a5,a5
   101a0:	fef44703          	lbu	a4,-17(s0)
   101a4:	00e7e7b3          	or	a5,a5,a4
   101a8:	fef407a3          	sb	a5,-17(s0)
   101ac:	fef44783          	lbu	a5,-17(s0)
   101b0:	0027d793          	srl	a5,a5,0x2
   101b4:	0ff7f793          	zext.b	a5,a5
   101b8:	fef44703          	lbu	a4,-17(s0)
   101bc:	00e7e7b3          	or	a5,a5,a4
   101c0:	fef407a3          	sb	a5,-17(s0)
   101c4:	fef44783          	lbu	a5,-17(s0)
   101c8:	0047d793          	srl	a5,a5,0x4
   101cc:	0ff7f793          	zext.b	a5,a5
   101d0:	fef44703          	lbu	a4,-17(s0)
   101d4:	00e7e7b3          	or	a5,a5,a4
   101d8:	fef407a3          	sb	a5,-17(s0)
   101dc:	fef44783          	lbu	a5,-17(s0)
   101e0:	0017d793          	srl	a5,a5,0x1
   101e4:	0ff7f793          	zext.b	a5,a5
   101e8:	0557f793          	and	a5,a5,85
   101ec:	0ff7f793          	zext.b	a5,a5
   101f0:	fef44703          	lbu	a4,-17(s0)
   101f4:	40f707b3          	sub	a5,a4,a5
   101f8:	fef407a3          	sb	a5,-17(s0)
   101fc:	fef44783          	lbu	a5,-17(s0)
   10200:	0027d793          	srl	a5,a5,0x2
   10204:	0ff7f793          	zext.b	a5,a5
   10208:	0337f793          	and	a5,a5,51
   1020c:	0ff7f713          	zext.b	a4,a5
   10210:	fef44783          	lbu	a5,-17(s0)
   10214:	0337f793          	and	a5,a5,51
   10218:	0ff7f793          	zext.b	a5,a5
   1021c:	00f707b3          	add	a5,a4,a5
   10220:	fef407a3          	sb	a5,-17(s0)
   10224:	fef44783          	lbu	a5,-17(s0)
   10228:	0047d793          	srl	a5,a5,0x4
   1022c:	0ff7f793          	zext.b	a5,a5
   10230:	fef44703          	lbu	a4,-17(s0)
   10234:	00e787b3          	add	a5,a5,a4
   10238:	0ff7f793          	zext.b	a5,a5
   1023c:	00f7f793          	and	a5,a5,15
   10240:	fef407a3          	sb	a5,-17(s0)
   10244:	fef44783          	lbu	a5,-17(s0)
   10248:	01f7f793          	and	a5,a5,31
   1024c:	0ff7f793          	zext.b	a5,a5
   10250:	01000713          	li	a4,16
   10254:	40f707b3          	sub	a5,a4,a5
   10258:	0ff7f793          	zext.b	a5,a5
   1025c:	00078513          	mv	a0,a5
   10260:	01c12403          	lw	s0,28(sp)
   10264:	02010113          	add	sp,sp,32
   10268:	00008067          	ret

0001026c <main>:
   1026c:	fd010113          	add	sp,sp,-48
   10270:	02112623          	sw	ra,44(sp)
   10274:	02812423          	sw	s0,40(sp)
   10278:	03010413          	add	s0,sp,48
   1027c:	968057b7          	lui	a5,0x96805
   10280:	01478793          	add	a5,a5,20 # 96805014 <__BSS_END__+0x967e1104>
   10284:	fcf42c23          	sw	a5,-40(s0)
   10288:	fe700793          	li	a5,-25
   1028c:	fcf40e23          	sb	a5,-36(s0)
   10290:	fe600793          	li	a5,-26
   10294:	fef403a3          	sb	a5,-25(s0)
   10298:	fd840793          	add	a5,s0,-40
   1029c:	fef42023          	sw	a5,-32(s0)
   102a0:	fe042623          	sw	zero,-20(s0)
   102a4:	0300006f          	j	102d4 <main+0x68>
   102a8:	fec42783          	lw	a5,-20(s0)
   102ac:	ff078793          	add	a5,a5,-16
   102b0:	008787b3          	add	a5,a5,s0
   102b4:	fe87c783          	lbu	a5,-24(a5)
   102b8:	00078593          	mv	a1,a5
   102bc:	000227b7          	lui	a5,0x22
   102c0:	b0078513          	add	a0,a5,-1280 # 21b00 <__clzsi2+0x8c>
   102c4:	6b0000ef          	jal	10974 <printf>
   102c8:	fec42783          	lw	a5,-20(s0)
   102cc:	00178793          	add	a5,a5,1
   102d0:	fef42623          	sw	a5,-20(s0)
   102d4:	fec42703          	lw	a4,-20(s0)
   102d8:	00400793          	li	a5,4
   102dc:	fce7d6e3          	bge	a5,a4,102a8 <main+0x3c>
   102e0:	fe042423          	sw	zero,-24(s0)
   102e4:	0e40006f          	j	103c8 <main+0x15c>
   102e8:	fe842783          	lw	a5,-24(s0)
   102ec:	fe042703          	lw	a4,-32(s0)
   102f0:	00f707b3          	add	a5,a4,a5
   102f4:	0007c783          	lbu	a5,0(a5)
   102f8:	fe744703          	lbu	a4,-25(s0)
   102fc:	40f707b3          	sub	a5,a4,a5
   10300:	fcf40fa3          	sb	a5,-33(s0)
   10304:	fdf44783          	lbu	a5,-33(s0)
   10308:	00078593          	mv	a1,a5
   1030c:	000227b7          	lui	a5,0x22
   10310:	b0478513          	add	a0,a5,-1276 # 21b04 <__clzsi2+0x90>
   10314:	660000ef          	jal	10974 <printf>
   10318:	fe842583          	lw	a1,-24(s0)
   1031c:	000227b7          	lui	a5,0x22
   10320:	b1078513          	add	a0,a5,-1264 # 21b10 <__clzsi2+0x9c>
   10324:	650000ef          	jal	10974 <printf>
   10328:	fe842783          	lw	a5,-24(s0)
   1032c:	fe042703          	lw	a4,-32(s0)
   10330:	00f707b3          	add	a5,a4,a5
   10334:	0007c783          	lbu	a5,0(a5)
   10338:	00078593          	mv	a1,a5
   1033c:	000227b7          	lui	a5,0x22
   10340:	b1878513          	add	a0,a5,-1256 # 21b18 <__clzsi2+0xa4>
   10344:	630000ef          	jal	10974 <printf>
   10348:	fdf44783          	lbu	a5,-33(s0)
   1034c:	00078513          	mv	a0,a5
   10350:	e31ff0ef          	jal	10180 <count_leading_zeros_32>
   10354:	00050793          	mv	a5,a0
   10358:	fcf40fa3          	sb	a5,-33(s0)
   1035c:	fe842783          	lw	a5,-24(s0)
   10360:	fe042703          	lw	a4,-32(s0)
   10364:	00f707b3          	add	a5,a4,a5
   10368:	0007c783          	lbu	a5,0(a5)
   1036c:	fdf44703          	lbu	a4,-33(s0)
   10370:	00e7fc63          	bgeu	a5,a4,10388 <main+0x11c>
   10374:	fe842783          	lw	a5,-24(s0)
   10378:	fe042703          	lw	a4,-32(s0)
   1037c:	00f707b3          	add	a5,a4,a5
   10380:	00078023          	sb	zero,0(a5)
   10384:	0180006f          	j	1039c <main+0x130>
   10388:	fe842783          	lw	a5,-24(s0)
   1038c:	fe042703          	lw	a4,-32(s0)
   10390:	00f707b3          	add	a5,a4,a5
   10394:	fff00713          	li	a4,-1
   10398:	00e78023          	sb	a4,0(a5)
   1039c:	fe842783          	lw	a5,-24(s0)
   103a0:	fe042703          	lw	a4,-32(s0)
   103a4:	00f707b3          	add	a5,a4,a5
   103a8:	0007c783          	lbu	a5,0(a5)
   103ac:	00078593          	mv	a1,a5
   103b0:	000227b7          	lui	a5,0x22
   103b4:	b2878513          	add	a0,a5,-1240 # 21b28 <__clzsi2+0xb4>
   103b8:	5bc000ef          	jal	10974 <printf>
   103bc:	fe842783          	lw	a5,-24(s0)
   103c0:	00178793          	add	a5,a5,1
   103c4:	fef42423          	sw	a5,-24(s0)
   103c8:	fe842703          	lw	a4,-24(s0)
   103cc:	00400793          	li	a5,4
   103d0:	f0e7dce3          	bge	a5,a4,102e8 <main+0x7c>
   103d4:	00000793          	li	a5,0
   103d8:	00078513          	mv	a0,a5
   103dc:	02c12083          	lw	ra,44(sp)
   103e0:	02812403          	lw	s0,40(sp)
   103e4:	03010113          	add	sp,sp,48
   103e8:	00008067          	ret

000103ec <atexit>:
   103ec:	00050593          	mv	a1,a0
   103f0:	00000693          	li	a3,0
   103f4:	00000613          	li	a2,0
   103f8:	00000513          	li	a0,0
   103fc:	3550006f          	j	10f50 <__register_exitproc>

00010400 <stdio_exit_handler>:
   10400:	00013617          	auipc	a2,0x13
   10404:	dd060613          	add	a2,a2,-560 # 231d0 <__sglue>
   10408:	00006597          	auipc	a1,0x6
   1040c:	13458593          	add	a1,a1,308 # 1653c <_fclose_r>
   10410:	00013517          	auipc	a0,0x13
   10414:	dd050513          	add	a0,a0,-560 # 231e0 <_impure_data>
   10418:	4680006f          	j	10880 <_fwalk_sglue>

0001041c <cleanup_stdio>:
   1041c:	00452583          	lw	a1,4(a0)
   10420:	ff010113          	add	sp,sp,-16
   10424:	00812423          	sw	s0,8(sp)
   10428:	00112623          	sw	ra,12(sp)
   1042c:	fa818793          	add	a5,gp,-88 # 23978 <__sf>
   10430:	00050413          	mv	s0,a0
   10434:	00f58463          	beq	a1,a5,1043c <cleanup_stdio+0x20>
   10438:	104060ef          	jal	1653c <_fclose_r>
   1043c:	00842583          	lw	a1,8(s0)
   10440:	01018793          	add	a5,gp,16 # 239e0 <__global_pointer$+0x10>
   10444:	00f58663          	beq	a1,a5,10450 <cleanup_stdio+0x34>
   10448:	00040513          	mv	a0,s0
   1044c:	0f0060ef          	jal	1653c <_fclose_r>
   10450:	00c42583          	lw	a1,12(s0)
   10454:	07818793          	add	a5,gp,120 # 23a48 <__global_pointer$+0x78>
   10458:	00f58c63          	beq	a1,a5,10470 <cleanup_stdio+0x54>
   1045c:	00040513          	mv	a0,s0
   10460:	00812403          	lw	s0,8(sp)
   10464:	00c12083          	lw	ra,12(sp)
   10468:	01010113          	add	sp,sp,16
   1046c:	0d00606f          	j	1653c <_fclose_r>
   10470:	00c12083          	lw	ra,12(sp)
   10474:	00812403          	lw	s0,8(sp)
   10478:	01010113          	add	sp,sp,16
   1047c:	00008067          	ret

00010480 <__fp_lock>:
   10480:	0645a783          	lw	a5,100(a1)
   10484:	0017f793          	and	a5,a5,1
   10488:	00079863          	bnez	a5,10498 <__fp_lock+0x18>
   1048c:	00c5d783          	lhu	a5,12(a1)
   10490:	2007f793          	and	a5,a5,512
   10494:	00078663          	beqz	a5,104a0 <__fp_lock+0x20>
   10498:	00000513          	li	a0,0
   1049c:	00008067          	ret
   104a0:	0585a503          	lw	a0,88(a1)
   104a4:	ff010113          	add	sp,sp,-16
   104a8:	00112623          	sw	ra,12(sp)
   104ac:	1ad000ef          	jal	10e58 <__retarget_lock_acquire_recursive>
   104b0:	00c12083          	lw	ra,12(sp)
   104b4:	00000513          	li	a0,0
   104b8:	01010113          	add	sp,sp,16
   104bc:	00008067          	ret

000104c0 <__fp_unlock>:
   104c0:	0645a783          	lw	a5,100(a1)
   104c4:	0017f793          	and	a5,a5,1
   104c8:	00079863          	bnez	a5,104d8 <__fp_unlock+0x18>
   104cc:	00c5d783          	lhu	a5,12(a1)
   104d0:	2007f793          	and	a5,a5,512
   104d4:	00078663          	beqz	a5,104e0 <__fp_unlock+0x20>
   104d8:	00000513          	li	a0,0
   104dc:	00008067          	ret
   104e0:	0585a503          	lw	a0,88(a1)
   104e4:	ff010113          	add	sp,sp,-16
   104e8:	00112623          	sw	ra,12(sp)
   104ec:	185000ef          	jal	10e70 <__retarget_lock_release_recursive>
   104f0:	00c12083          	lw	ra,12(sp)
   104f4:	00000513          	li	a0,0
   104f8:	01010113          	add	sp,sp,16
   104fc:	00008067          	ret

00010500 <global_stdio_init.part.0>:
   10500:	fe010113          	add	sp,sp,-32
   10504:	00000797          	auipc	a5,0x0
   10508:	efc78793          	add	a5,a5,-260 # 10400 <stdio_exit_handler>
   1050c:	00112e23          	sw	ra,28(sp)
   10510:	00812c23          	sw	s0,24(sp)
   10514:	00912a23          	sw	s1,20(sp)
   10518:	fa818413          	add	s0,gp,-88 # 23978 <__sf>
   1051c:	01212823          	sw	s2,16(sp)
   10520:	01312623          	sw	s3,12(sp)
   10524:	01412423          	sw	s4,8(sp)
   10528:	00800613          	li	a2,8
   1052c:	00000593          	li	a1,0
   10530:	f4f1a623          	sw	a5,-180(gp) # 2391c <__stdio_exit_handler>
   10534:	00418513          	add	a0,gp,4 # 239d4 <__global_pointer$+0x4>
   10538:	00400793          	li	a5,4
   1053c:	00f42623          	sw	a5,12(s0)
   10540:	00042023          	sw	zero,0(s0)
   10544:	00042223          	sw	zero,4(s0)
   10548:	00042423          	sw	zero,8(s0)
   1054c:	06042223          	sw	zero,100(s0)
   10550:	00042823          	sw	zero,16(s0)
   10554:	00042a23          	sw	zero,20(s0)
   10558:	00042c23          	sw	zero,24(s0)
   1055c:	119000ef          	jal	10e74 <memset>
   10560:	00000a17          	auipc	s4,0x0
   10564:	460a0a13          	add	s4,s4,1120 # 109c0 <__sread>
   10568:	00000997          	auipc	s3,0x0
   1056c:	4bc98993          	add	s3,s3,1212 # 10a24 <__swrite>
   10570:	00000917          	auipc	s2,0x0
   10574:	53c90913          	add	s2,s2,1340 # 10aac <__sseek>
   10578:	00000497          	auipc	s1,0x0
   1057c:	5ac48493          	add	s1,s1,1452 # 10b24 <__sclose>
   10580:	00018513          	mv	a0,gp
   10584:	03442023          	sw	s4,32(s0)
   10588:	03342223          	sw	s3,36(s0)
   1058c:	03242423          	sw	s2,40(s0)
   10590:	02942623          	sw	s1,44(s0)
   10594:	00842e23          	sw	s0,28(s0)
   10598:	0b1000ef          	jal	10e48 <__retarget_lock_init_recursive>
   1059c:	000107b7          	lui	a5,0x10
   105a0:	00978793          	add	a5,a5,9 # 10009 <exit-0x8b>
   105a4:	00800613          	li	a2,8
   105a8:	00000593          	li	a1,0
   105ac:	06c18513          	add	a0,gp,108 # 23a3c <__global_pointer$+0x6c>
   105b0:	06f42a23          	sw	a5,116(s0)
   105b4:	06042423          	sw	zero,104(s0)
   105b8:	06042623          	sw	zero,108(s0)
   105bc:	06042823          	sw	zero,112(s0)
   105c0:	0c042623          	sw	zero,204(s0)
   105c4:	06042c23          	sw	zero,120(s0)
   105c8:	06042e23          	sw	zero,124(s0)
   105cc:	08042023          	sw	zero,128(s0)
   105d0:	0a5000ef          	jal	10e74 <memset>
   105d4:	01018793          	add	a5,gp,16 # 239e0 <__global_pointer$+0x10>
   105d8:	06818513          	add	a0,gp,104 # 23a38 <__global_pointer$+0x68>
   105dc:	08f42223          	sw	a5,132(s0)
   105e0:	09442423          	sw	s4,136(s0)
   105e4:	09342623          	sw	s3,140(s0)
   105e8:	09242823          	sw	s2,144(s0)
   105ec:	08942a23          	sw	s1,148(s0)
   105f0:	059000ef          	jal	10e48 <__retarget_lock_init_recursive>
   105f4:	000207b7          	lui	a5,0x20
   105f8:	01278793          	add	a5,a5,18 # 20012 <__divdf3+0x87e>
   105fc:	00800613          	li	a2,8
   10600:	00000593          	li	a1,0
   10604:	0d418513          	add	a0,gp,212 # 23aa4 <__global_pointer$+0xd4>
   10608:	0cf42e23          	sw	a5,220(s0)
   1060c:	0c042823          	sw	zero,208(s0)
   10610:	0c042a23          	sw	zero,212(s0)
   10614:	0c042c23          	sw	zero,216(s0)
   10618:	12042a23          	sw	zero,308(s0)
   1061c:	0e042023          	sw	zero,224(s0)
   10620:	0e042223          	sw	zero,228(s0)
   10624:	0e042423          	sw	zero,232(s0)
   10628:	04d000ef          	jal	10e74 <memset>
   1062c:	07818793          	add	a5,gp,120 # 23a48 <__global_pointer$+0x78>
   10630:	0f442823          	sw	s4,240(s0)
   10634:	0f342a23          	sw	s3,244(s0)
   10638:	0f242c23          	sw	s2,248(s0)
   1063c:	0e942e23          	sw	s1,252(s0)
   10640:	0ef42623          	sw	a5,236(s0)
   10644:	01812403          	lw	s0,24(sp)
   10648:	01c12083          	lw	ra,28(sp)
   1064c:	01412483          	lw	s1,20(sp)
   10650:	01012903          	lw	s2,16(sp)
   10654:	00c12983          	lw	s3,12(sp)
   10658:	00812a03          	lw	s4,8(sp)
   1065c:	0d018513          	add	a0,gp,208 # 23aa0 <__global_pointer$+0xd0>
   10660:	02010113          	add	sp,sp,32
   10664:	7e40006f          	j	10e48 <__retarget_lock_init_recursive>

00010668 <__sfp>:
   10668:	fe010113          	add	sp,sp,-32
   1066c:	01312623          	sw	s3,12(sp)
   10670:	00050993          	mv	s3,a0
   10674:	f7018513          	add	a0,gp,-144 # 23940 <__lock___sfp_recursive_mutex>
   10678:	00112e23          	sw	ra,28(sp)
   1067c:	00812c23          	sw	s0,24(sp)
   10680:	00912a23          	sw	s1,20(sp)
   10684:	01212823          	sw	s2,16(sp)
   10688:	7d0000ef          	jal	10e58 <__retarget_lock_acquire_recursive>
   1068c:	f4c1a783          	lw	a5,-180(gp) # 2391c <__stdio_exit_handler>
   10690:	10078063          	beqz	a5,10790 <__sfp+0x128>
   10694:	00013917          	auipc	s2,0x13
   10698:	b3c90913          	add	s2,s2,-1220 # 231d0 <__sglue>
   1069c:	fff00493          	li	s1,-1
   106a0:	00492783          	lw	a5,4(s2)
   106a4:	00892403          	lw	s0,8(s2)
   106a8:	fff78793          	add	a5,a5,-1
   106ac:	0007d863          	bgez	a5,106bc <__sfp+0x54>
   106b0:	0900006f          	j	10740 <__sfp+0xd8>
   106b4:	06840413          	add	s0,s0,104
   106b8:	08978463          	beq	a5,s1,10740 <__sfp+0xd8>
   106bc:	00c41703          	lh	a4,12(s0)
   106c0:	fff78793          	add	a5,a5,-1
   106c4:	fe0718e3          	bnez	a4,106b4 <__sfp+0x4c>
   106c8:	ffff07b7          	lui	a5,0xffff0
   106cc:	00178793          	add	a5,a5,1 # ffff0001 <__BSS_END__+0xfffcc0f1>
   106d0:	00f42623          	sw	a5,12(s0)
   106d4:	05840513          	add	a0,s0,88
   106d8:	06042223          	sw	zero,100(s0)
   106dc:	76c000ef          	jal	10e48 <__retarget_lock_init_recursive>
   106e0:	f7018513          	add	a0,gp,-144 # 23940 <__lock___sfp_recursive_mutex>
   106e4:	78c000ef          	jal	10e70 <__retarget_lock_release_recursive>
   106e8:	00800613          	li	a2,8
   106ec:	00042023          	sw	zero,0(s0)
   106f0:	00042423          	sw	zero,8(s0)
   106f4:	00042223          	sw	zero,4(s0)
   106f8:	00042823          	sw	zero,16(s0)
   106fc:	00042a23          	sw	zero,20(s0)
   10700:	00042c23          	sw	zero,24(s0)
   10704:	00000593          	li	a1,0
   10708:	05c40513          	add	a0,s0,92
   1070c:	768000ef          	jal	10e74 <memset>
   10710:	02042823          	sw	zero,48(s0)
   10714:	02042a23          	sw	zero,52(s0)
   10718:	04042223          	sw	zero,68(s0)
   1071c:	04042423          	sw	zero,72(s0)
   10720:	01c12083          	lw	ra,28(sp)
   10724:	00040513          	mv	a0,s0
   10728:	01812403          	lw	s0,24(sp)
   1072c:	01412483          	lw	s1,20(sp)
   10730:	01012903          	lw	s2,16(sp)
   10734:	00c12983          	lw	s3,12(sp)
   10738:	02010113          	add	sp,sp,32
   1073c:	00008067          	ret
   10740:	00092403          	lw	s0,0(s2)
   10744:	00040663          	beqz	s0,10750 <__sfp+0xe8>
   10748:	00040913          	mv	s2,s0
   1074c:	f55ff06f          	j	106a0 <__sfp+0x38>
   10750:	1ac00593          	li	a1,428
   10754:	00098513          	mv	a0,s3
   10758:	669000ef          	jal	115c0 <_malloc_r>
   1075c:	00050413          	mv	s0,a0
   10760:	02050c63          	beqz	a0,10798 <__sfp+0x130>
   10764:	00c50513          	add	a0,a0,12
   10768:	00400793          	li	a5,4
   1076c:	00042023          	sw	zero,0(s0)
   10770:	00f42223          	sw	a5,4(s0)
   10774:	00a42423          	sw	a0,8(s0)
   10778:	1a000613          	li	a2,416
   1077c:	00000593          	li	a1,0
   10780:	6f4000ef          	jal	10e74 <memset>
   10784:	00892023          	sw	s0,0(s2)
   10788:	00040913          	mv	s2,s0
   1078c:	f15ff06f          	j	106a0 <__sfp+0x38>
   10790:	d71ff0ef          	jal	10500 <global_stdio_init.part.0>
   10794:	f01ff06f          	j	10694 <__sfp+0x2c>
   10798:	00092023          	sw	zero,0(s2)
   1079c:	f7018513          	add	a0,gp,-144 # 23940 <__lock___sfp_recursive_mutex>
   107a0:	6d0000ef          	jal	10e70 <__retarget_lock_release_recursive>
   107a4:	00c00793          	li	a5,12
   107a8:	00f9a023          	sw	a5,0(s3)
   107ac:	f75ff06f          	j	10720 <__sfp+0xb8>

000107b0 <__sinit>:
   107b0:	ff010113          	add	sp,sp,-16
   107b4:	00812423          	sw	s0,8(sp)
   107b8:	00050413          	mv	s0,a0
   107bc:	f7018513          	add	a0,gp,-144 # 23940 <__lock___sfp_recursive_mutex>
   107c0:	00112623          	sw	ra,12(sp)
   107c4:	694000ef          	jal	10e58 <__retarget_lock_acquire_recursive>
   107c8:	03442783          	lw	a5,52(s0)
   107cc:	00079c63          	bnez	a5,107e4 <__sinit+0x34>
   107d0:	00000797          	auipc	a5,0x0
   107d4:	c4c78793          	add	a5,a5,-948 # 1041c <cleanup_stdio>
   107d8:	02f42a23          	sw	a5,52(s0)
   107dc:	f4c1a783          	lw	a5,-180(gp) # 2391c <__stdio_exit_handler>
   107e0:	00078c63          	beqz	a5,107f8 <__sinit+0x48>
   107e4:	00812403          	lw	s0,8(sp)
   107e8:	00c12083          	lw	ra,12(sp)
   107ec:	f7018513          	add	a0,gp,-144 # 23940 <__lock___sfp_recursive_mutex>
   107f0:	01010113          	add	sp,sp,16
   107f4:	67c0006f          	j	10e70 <__retarget_lock_release_recursive>
   107f8:	d09ff0ef          	jal	10500 <global_stdio_init.part.0>
   107fc:	00812403          	lw	s0,8(sp)
   10800:	00c12083          	lw	ra,12(sp)
   10804:	f7018513          	add	a0,gp,-144 # 23940 <__lock___sfp_recursive_mutex>
   10808:	01010113          	add	sp,sp,16
   1080c:	6640006f          	j	10e70 <__retarget_lock_release_recursive>

00010810 <__sfp_lock_acquire>:
   10810:	f7018513          	add	a0,gp,-144 # 23940 <__lock___sfp_recursive_mutex>
   10814:	6440006f          	j	10e58 <__retarget_lock_acquire_recursive>

00010818 <__sfp_lock_release>:
   10818:	f7018513          	add	a0,gp,-144 # 23940 <__lock___sfp_recursive_mutex>
   1081c:	6540006f          	j	10e70 <__retarget_lock_release_recursive>

00010820 <__fp_lock_all>:
   10820:	ff010113          	add	sp,sp,-16
   10824:	f7018513          	add	a0,gp,-144 # 23940 <__lock___sfp_recursive_mutex>
   10828:	00112623          	sw	ra,12(sp)
   1082c:	62c000ef          	jal	10e58 <__retarget_lock_acquire_recursive>
   10830:	00c12083          	lw	ra,12(sp)
   10834:	00013617          	auipc	a2,0x13
   10838:	99c60613          	add	a2,a2,-1636 # 231d0 <__sglue>
   1083c:	00000597          	auipc	a1,0x0
   10840:	c4458593          	add	a1,a1,-956 # 10480 <__fp_lock>
   10844:	00000513          	li	a0,0
   10848:	01010113          	add	sp,sp,16
   1084c:	0340006f          	j	10880 <_fwalk_sglue>

00010850 <__fp_unlock_all>:
   10850:	ff010113          	add	sp,sp,-16
   10854:	00013617          	auipc	a2,0x13
   10858:	97c60613          	add	a2,a2,-1668 # 231d0 <__sglue>
   1085c:	00000597          	auipc	a1,0x0
   10860:	c6458593          	add	a1,a1,-924 # 104c0 <__fp_unlock>
   10864:	00000513          	li	a0,0
   10868:	00112623          	sw	ra,12(sp)
   1086c:	014000ef          	jal	10880 <_fwalk_sglue>
   10870:	00c12083          	lw	ra,12(sp)
   10874:	f7018513          	add	a0,gp,-144 # 23940 <__lock___sfp_recursive_mutex>
   10878:	01010113          	add	sp,sp,16
   1087c:	5f40006f          	j	10e70 <__retarget_lock_release_recursive>

00010880 <_fwalk_sglue>:
   10880:	fd010113          	add	sp,sp,-48
   10884:	03212023          	sw	s2,32(sp)
   10888:	01312e23          	sw	s3,28(sp)
   1088c:	01412c23          	sw	s4,24(sp)
   10890:	01512a23          	sw	s5,20(sp)
   10894:	01612823          	sw	s6,16(sp)
   10898:	01712623          	sw	s7,12(sp)
   1089c:	02112623          	sw	ra,44(sp)
   108a0:	02812423          	sw	s0,40(sp)
   108a4:	02912223          	sw	s1,36(sp)
   108a8:	00050b13          	mv	s6,a0
   108ac:	00058b93          	mv	s7,a1
   108b0:	00060a93          	mv	s5,a2
   108b4:	00000a13          	li	s4,0
   108b8:	00100993          	li	s3,1
   108bc:	fff00913          	li	s2,-1
   108c0:	004aa483          	lw	s1,4(s5)
   108c4:	008aa403          	lw	s0,8(s5)
   108c8:	fff48493          	add	s1,s1,-1
   108cc:	0204c863          	bltz	s1,108fc <_fwalk_sglue+0x7c>
   108d0:	00c45783          	lhu	a5,12(s0)
   108d4:	00f9fe63          	bgeu	s3,a5,108f0 <_fwalk_sglue+0x70>
   108d8:	00e41783          	lh	a5,14(s0)
   108dc:	00040593          	mv	a1,s0
   108e0:	000b0513          	mv	a0,s6
   108e4:	01278663          	beq	a5,s2,108f0 <_fwalk_sglue+0x70>
   108e8:	000b80e7          	jalr	s7
   108ec:	00aa6a33          	or	s4,s4,a0
   108f0:	fff48493          	add	s1,s1,-1
   108f4:	06840413          	add	s0,s0,104
   108f8:	fd249ce3          	bne	s1,s2,108d0 <_fwalk_sglue+0x50>
   108fc:	000aaa83          	lw	s5,0(s5)
   10900:	fc0a90e3          	bnez	s5,108c0 <_fwalk_sglue+0x40>
   10904:	02c12083          	lw	ra,44(sp)
   10908:	02812403          	lw	s0,40(sp)
   1090c:	02412483          	lw	s1,36(sp)
   10910:	02012903          	lw	s2,32(sp)
   10914:	01c12983          	lw	s3,28(sp)
   10918:	01412a83          	lw	s5,20(sp)
   1091c:	01012b03          	lw	s6,16(sp)
   10920:	00c12b83          	lw	s7,12(sp)
   10924:	000a0513          	mv	a0,s4
   10928:	01812a03          	lw	s4,24(sp)
   1092c:	03010113          	add	sp,sp,48
   10930:	00008067          	ret

00010934 <_printf_r>:
   10934:	fc010113          	add	sp,sp,-64
   10938:	02c12423          	sw	a2,40(sp)
   1093c:	02d12623          	sw	a3,44(sp)
   10940:	02e12823          	sw	a4,48(sp)
   10944:	02f12a23          	sw	a5,52(sp)
   10948:	03012c23          	sw	a6,56(sp)
   1094c:	03112e23          	sw	a7,60(sp)
   10950:	00058613          	mv	a2,a1
   10954:	00852583          	lw	a1,8(a0)
   10958:	02810693          	add	a3,sp,40
   1095c:	00112e23          	sw	ra,28(sp)
   10960:	00d12623          	sw	a3,12(sp)
   10964:	434010ef          	jal	11d98 <_vfprintf_r>
   10968:	01c12083          	lw	ra,28(sp)
   1096c:	04010113          	add	sp,sp,64
   10970:	00008067          	ret

00010974 <printf>:
   10974:	fc010113          	add	sp,sp,-64
   10978:	02c12423          	sw	a2,40(sp)
   1097c:	02d12623          	sw	a3,44(sp)
   10980:	f341a303          	lw	t1,-204(gp) # 23904 <_impure_ptr>
   10984:	02b12223          	sw	a1,36(sp)
   10988:	02e12823          	sw	a4,48(sp)
   1098c:	02f12a23          	sw	a5,52(sp)
   10990:	03012c23          	sw	a6,56(sp)
   10994:	03112e23          	sw	a7,60(sp)
   10998:	00832583          	lw	a1,8(t1) # 1017c <frame_dummy+0x1c>
   1099c:	02410693          	add	a3,sp,36
   109a0:	00050613          	mv	a2,a0
   109a4:	00030513          	mv	a0,t1
   109a8:	00112e23          	sw	ra,28(sp)
   109ac:	00d12623          	sw	a3,12(sp)
   109b0:	3e8010ef          	jal	11d98 <_vfprintf_r>
   109b4:	01c12083          	lw	ra,28(sp)
   109b8:	04010113          	add	sp,sp,64
   109bc:	00008067          	ret

000109c0 <__sread>:
   109c0:	ff010113          	add	sp,sp,-16
   109c4:	00812423          	sw	s0,8(sp)
   109c8:	00058413          	mv	s0,a1
   109cc:	00e59583          	lh	a1,14(a1)
   109d0:	00112623          	sw	ra,12(sp)
   109d4:	2c8000ef          	jal	10c9c <_read_r>
   109d8:	02054063          	bltz	a0,109f8 <__sread+0x38>
   109dc:	05042783          	lw	a5,80(s0)
   109e0:	00c12083          	lw	ra,12(sp)
   109e4:	00a787b3          	add	a5,a5,a0
   109e8:	04f42823          	sw	a5,80(s0)
   109ec:	00812403          	lw	s0,8(sp)
   109f0:	01010113          	add	sp,sp,16
   109f4:	00008067          	ret
   109f8:	00c45783          	lhu	a5,12(s0)
   109fc:	fffff737          	lui	a4,0xfffff
   10a00:	fff70713          	add	a4,a4,-1 # ffffefff <__BSS_END__+0xfffdb0ef>
   10a04:	00e7f7b3          	and	a5,a5,a4
   10a08:	00c12083          	lw	ra,12(sp)
   10a0c:	00f41623          	sh	a5,12(s0)
   10a10:	00812403          	lw	s0,8(sp)
   10a14:	01010113          	add	sp,sp,16
   10a18:	00008067          	ret

00010a1c <__seofread>:
   10a1c:	00000513          	li	a0,0
   10a20:	00008067          	ret

00010a24 <__swrite>:
   10a24:	00c59783          	lh	a5,12(a1)
   10a28:	fe010113          	add	sp,sp,-32
   10a2c:	00812c23          	sw	s0,24(sp)
   10a30:	00912a23          	sw	s1,20(sp)
   10a34:	01212823          	sw	s2,16(sp)
   10a38:	01312623          	sw	s3,12(sp)
   10a3c:	00112e23          	sw	ra,28(sp)
   10a40:	1007f713          	and	a4,a5,256
   10a44:	00058413          	mv	s0,a1
   10a48:	00050493          	mv	s1,a0
   10a4c:	00060913          	mv	s2,a2
   10a50:	00068993          	mv	s3,a3
   10a54:	04071063          	bnez	a4,10a94 <__swrite+0x70>
   10a58:	fffff737          	lui	a4,0xfffff
   10a5c:	fff70713          	add	a4,a4,-1 # ffffefff <__BSS_END__+0xfffdb0ef>
   10a60:	00e7f7b3          	and	a5,a5,a4
   10a64:	00e41583          	lh	a1,14(s0)
   10a68:	00f41623          	sh	a5,12(s0)
   10a6c:	01812403          	lw	s0,24(sp)
   10a70:	01c12083          	lw	ra,28(sp)
   10a74:	00098693          	mv	a3,s3
   10a78:	00090613          	mv	a2,s2
   10a7c:	00c12983          	lw	s3,12(sp)
   10a80:	01012903          	lw	s2,16(sp)
   10a84:	00048513          	mv	a0,s1
   10a88:	01412483          	lw	s1,20(sp)
   10a8c:	02010113          	add	sp,sp,32
   10a90:	2680006f          	j	10cf8 <_write_r>
   10a94:	00e59583          	lh	a1,14(a1)
   10a98:	00200693          	li	a3,2
   10a9c:	00000613          	li	a2,0
   10aa0:	1a0000ef          	jal	10c40 <_lseek_r>
   10aa4:	00c41783          	lh	a5,12(s0)
   10aa8:	fb1ff06f          	j	10a58 <__swrite+0x34>

00010aac <__sseek>:
   10aac:	ff010113          	add	sp,sp,-16
   10ab0:	00812423          	sw	s0,8(sp)
   10ab4:	00058413          	mv	s0,a1
   10ab8:	00e59583          	lh	a1,14(a1)
   10abc:	00112623          	sw	ra,12(sp)
   10ac0:	180000ef          	jal	10c40 <_lseek_r>
   10ac4:	fff00793          	li	a5,-1
   10ac8:	02f50863          	beq	a0,a5,10af8 <__sseek+0x4c>
   10acc:	00c45783          	lhu	a5,12(s0)
   10ad0:	00001737          	lui	a4,0x1
   10ad4:	00c12083          	lw	ra,12(sp)
   10ad8:	00e7e7b3          	or	a5,a5,a4
   10adc:	01079793          	sll	a5,a5,0x10
   10ae0:	4107d793          	sra	a5,a5,0x10
   10ae4:	04a42823          	sw	a0,80(s0)
   10ae8:	00f41623          	sh	a5,12(s0)
   10aec:	00812403          	lw	s0,8(sp)
   10af0:	01010113          	add	sp,sp,16
   10af4:	00008067          	ret
   10af8:	00c45783          	lhu	a5,12(s0)
   10afc:	fffff737          	lui	a4,0xfffff
   10b00:	fff70713          	add	a4,a4,-1 # ffffefff <__BSS_END__+0xfffdb0ef>
   10b04:	00e7f7b3          	and	a5,a5,a4
   10b08:	01079793          	sll	a5,a5,0x10
   10b0c:	4107d793          	sra	a5,a5,0x10
   10b10:	00c12083          	lw	ra,12(sp)
   10b14:	00f41623          	sh	a5,12(s0)
   10b18:	00812403          	lw	s0,8(sp)
   10b1c:	01010113          	add	sp,sp,16
   10b20:	00008067          	ret

00010b24 <__sclose>:
   10b24:	00e59583          	lh	a1,14(a1)
   10b28:	0040006f          	j	10b2c <_close_r>

00010b2c <_close_r>:
   10b2c:	ff010113          	add	sp,sp,-16
   10b30:	00812423          	sw	s0,8(sp)
   10b34:	00050413          	mv	s0,a0
   10b38:	00058513          	mv	a0,a1
   10b3c:	f401a823          	sw	zero,-176(gp) # 23920 <errno>
   10b40:	00112623          	sw	ra,12(sp)
   10b44:	3540d0ef          	jal	1de98 <_close>
   10b48:	fff00793          	li	a5,-1
   10b4c:	00f50a63          	beq	a0,a5,10b60 <_close_r+0x34>
   10b50:	00c12083          	lw	ra,12(sp)
   10b54:	00812403          	lw	s0,8(sp)
   10b58:	01010113          	add	sp,sp,16
   10b5c:	00008067          	ret
   10b60:	f501a783          	lw	a5,-176(gp) # 23920 <errno>
   10b64:	fe0786e3          	beqz	a5,10b50 <_close_r+0x24>
   10b68:	00c12083          	lw	ra,12(sp)
   10b6c:	00f42023          	sw	a5,0(s0)
   10b70:	00812403          	lw	s0,8(sp)
   10b74:	01010113          	add	sp,sp,16
   10b78:	00008067          	ret

00010b7c <_reclaim_reent>:
   10b7c:	f341a783          	lw	a5,-204(gp) # 23904 <_impure_ptr>
   10b80:	0aa78e63          	beq	a5,a0,10c3c <_reclaim_reent+0xc0>
   10b84:	04452583          	lw	a1,68(a0)
   10b88:	fe010113          	add	sp,sp,-32
   10b8c:	00912a23          	sw	s1,20(sp)
   10b90:	00112e23          	sw	ra,28(sp)
   10b94:	00050493          	mv	s1,a0
   10b98:	04058c63          	beqz	a1,10bf0 <_reclaim_reent+0x74>
   10b9c:	01212823          	sw	s2,16(sp)
   10ba0:	01312623          	sw	s3,12(sp)
   10ba4:	00812c23          	sw	s0,24(sp)
   10ba8:	00000913          	li	s2,0
   10bac:	08000993          	li	s3,128
   10bb0:	012587b3          	add	a5,a1,s2
   10bb4:	0007a403          	lw	s0,0(a5)
   10bb8:	00040e63          	beqz	s0,10bd4 <_reclaim_reent+0x58>
   10bbc:	00040593          	mv	a1,s0
   10bc0:	00042403          	lw	s0,0(s0)
   10bc4:	00048513          	mv	a0,s1
   10bc8:	6f4000ef          	jal	112bc <_free_r>
   10bcc:	fe0418e3          	bnez	s0,10bbc <_reclaim_reent+0x40>
   10bd0:	0444a583          	lw	a1,68(s1)
   10bd4:	00490913          	add	s2,s2,4
   10bd8:	fd391ce3          	bne	s2,s3,10bb0 <_reclaim_reent+0x34>
   10bdc:	00048513          	mv	a0,s1
   10be0:	6dc000ef          	jal	112bc <_free_r>
   10be4:	01812403          	lw	s0,24(sp)
   10be8:	01012903          	lw	s2,16(sp)
   10bec:	00c12983          	lw	s3,12(sp)
   10bf0:	0384a583          	lw	a1,56(s1)
   10bf4:	00058663          	beqz	a1,10c00 <_reclaim_reent+0x84>
   10bf8:	00048513          	mv	a0,s1
   10bfc:	6c0000ef          	jal	112bc <_free_r>
   10c00:	04c4a583          	lw	a1,76(s1)
   10c04:	00058663          	beqz	a1,10c10 <_reclaim_reent+0x94>
   10c08:	00048513          	mv	a0,s1
   10c0c:	6b0000ef          	jal	112bc <_free_r>
   10c10:	0344a783          	lw	a5,52(s1)
   10c14:	00078c63          	beqz	a5,10c2c <_reclaim_reent+0xb0>
   10c18:	01c12083          	lw	ra,28(sp)
   10c1c:	00048513          	mv	a0,s1
   10c20:	01412483          	lw	s1,20(sp)
   10c24:	02010113          	add	sp,sp,32
   10c28:	00078067          	jr	a5
   10c2c:	01c12083          	lw	ra,28(sp)
   10c30:	01412483          	lw	s1,20(sp)
   10c34:	02010113          	add	sp,sp,32
   10c38:	00008067          	ret
   10c3c:	00008067          	ret

00010c40 <_lseek_r>:
   10c40:	ff010113          	add	sp,sp,-16
   10c44:	00058713          	mv	a4,a1
   10c48:	00812423          	sw	s0,8(sp)
   10c4c:	00060593          	mv	a1,a2
   10c50:	00050413          	mv	s0,a0
   10c54:	00068613          	mv	a2,a3
   10c58:	00070513          	mv	a0,a4
   10c5c:	f401a823          	sw	zero,-176(gp) # 23920 <errno>
   10c60:	00112623          	sw	ra,12(sp)
   10c64:	3740d0ef          	jal	1dfd8 <_lseek>
   10c68:	fff00793          	li	a5,-1
   10c6c:	00f50a63          	beq	a0,a5,10c80 <_lseek_r+0x40>
   10c70:	00c12083          	lw	ra,12(sp)
   10c74:	00812403          	lw	s0,8(sp)
   10c78:	01010113          	add	sp,sp,16
   10c7c:	00008067          	ret
   10c80:	f501a783          	lw	a5,-176(gp) # 23920 <errno>
   10c84:	fe0786e3          	beqz	a5,10c70 <_lseek_r+0x30>
   10c88:	00c12083          	lw	ra,12(sp)
   10c8c:	00f42023          	sw	a5,0(s0)
   10c90:	00812403          	lw	s0,8(sp)
   10c94:	01010113          	add	sp,sp,16
   10c98:	00008067          	ret

00010c9c <_read_r>:
   10c9c:	ff010113          	add	sp,sp,-16
   10ca0:	00058713          	mv	a4,a1
   10ca4:	00812423          	sw	s0,8(sp)
   10ca8:	00060593          	mv	a1,a2
   10cac:	00050413          	mv	s0,a0
   10cb0:	00068613          	mv	a2,a3
   10cb4:	00070513          	mv	a0,a4
   10cb8:	f401a823          	sw	zero,-176(gp) # 23920 <errno>
   10cbc:	00112623          	sw	ra,12(sp)
   10cc0:	35c0d0ef          	jal	1e01c <_read>
   10cc4:	fff00793          	li	a5,-1
   10cc8:	00f50a63          	beq	a0,a5,10cdc <_read_r+0x40>
   10ccc:	00c12083          	lw	ra,12(sp)
   10cd0:	00812403          	lw	s0,8(sp)
   10cd4:	01010113          	add	sp,sp,16
   10cd8:	00008067          	ret
   10cdc:	f501a783          	lw	a5,-176(gp) # 23920 <errno>
   10ce0:	fe0786e3          	beqz	a5,10ccc <_read_r+0x30>
   10ce4:	00c12083          	lw	ra,12(sp)
   10ce8:	00f42023          	sw	a5,0(s0)
   10cec:	00812403          	lw	s0,8(sp)
   10cf0:	01010113          	add	sp,sp,16
   10cf4:	00008067          	ret

00010cf8 <_write_r>:
   10cf8:	ff010113          	add	sp,sp,-16
   10cfc:	00058713          	mv	a4,a1
   10d00:	00812423          	sw	s0,8(sp)
   10d04:	00060593          	mv	a1,a2
   10d08:	00050413          	mv	s0,a0
   10d0c:	00068613          	mv	a2,a3
   10d10:	00070513          	mv	a0,a4
   10d14:	f401a823          	sw	zero,-176(gp) # 23920 <errno>
   10d18:	00112623          	sw	ra,12(sp)
   10d1c:	3c00d0ef          	jal	1e0dc <_write>
   10d20:	fff00793          	li	a5,-1
   10d24:	00f50a63          	beq	a0,a5,10d38 <_write_r+0x40>
   10d28:	00c12083          	lw	ra,12(sp)
   10d2c:	00812403          	lw	s0,8(sp)
   10d30:	01010113          	add	sp,sp,16
   10d34:	00008067          	ret
   10d38:	f501a783          	lw	a5,-176(gp) # 23920 <errno>
   10d3c:	fe0786e3          	beqz	a5,10d28 <_write_r+0x30>
   10d40:	00c12083          	lw	ra,12(sp)
   10d44:	00f42023          	sw	a5,0(s0)
   10d48:	00812403          	lw	s0,8(sp)
   10d4c:	01010113          	add	sp,sp,16
   10d50:	00008067          	ret

00010d54 <__libc_init_array>:
   10d54:	ff010113          	add	sp,sp,-16
   10d58:	00812423          	sw	s0,8(sp)
   10d5c:	01212023          	sw	s2,0(sp)
   10d60:	00012797          	auipc	a5,0x12
   10d64:	46078793          	add	a5,a5,1120 # 231c0 <__init_array_start>
   10d68:	00012417          	auipc	s0,0x12
   10d6c:	45840413          	add	s0,s0,1112 # 231c0 <__init_array_start>
   10d70:	00112623          	sw	ra,12(sp)
   10d74:	00912223          	sw	s1,4(sp)
   10d78:	40878933          	sub	s2,a5,s0
   10d7c:	02878063          	beq	a5,s0,10d9c <__libc_init_array+0x48>
   10d80:	40295913          	sra	s2,s2,0x2
   10d84:	00000493          	li	s1,0
   10d88:	00042783          	lw	a5,0(s0)
   10d8c:	00148493          	add	s1,s1,1
   10d90:	00440413          	add	s0,s0,4
   10d94:	000780e7          	jalr	a5
   10d98:	ff24e8e3          	bltu	s1,s2,10d88 <__libc_init_array+0x34>
   10d9c:	00012797          	auipc	a5,0x12
   10da0:	42c78793          	add	a5,a5,1068 # 231c8 <__do_global_dtors_aux_fini_array_entry>
   10da4:	00012417          	auipc	s0,0x12
   10da8:	41c40413          	add	s0,s0,1052 # 231c0 <__init_array_start>
   10dac:	40878933          	sub	s2,a5,s0
   10db0:	40295913          	sra	s2,s2,0x2
   10db4:	00878e63          	beq	a5,s0,10dd0 <__libc_init_array+0x7c>
   10db8:	00000493          	li	s1,0
   10dbc:	00042783          	lw	a5,0(s0)
   10dc0:	00148493          	add	s1,s1,1
   10dc4:	00440413          	add	s0,s0,4
   10dc8:	000780e7          	jalr	a5
   10dcc:	ff24e8e3          	bltu	s1,s2,10dbc <__libc_init_array+0x68>
   10dd0:	00c12083          	lw	ra,12(sp)
   10dd4:	00812403          	lw	s0,8(sp)
   10dd8:	00412483          	lw	s1,4(sp)
   10ddc:	00012903          	lw	s2,0(sp)
   10de0:	01010113          	add	sp,sp,16
   10de4:	00008067          	ret

00010de8 <__libc_fini_array>:
   10de8:	ff010113          	add	sp,sp,-16
   10dec:	00812423          	sw	s0,8(sp)
   10df0:	00012797          	auipc	a5,0x12
   10df4:	3d878793          	add	a5,a5,984 # 231c8 <__do_global_dtors_aux_fini_array_entry>
   10df8:	00012417          	auipc	s0,0x12
   10dfc:	3d440413          	add	s0,s0,980 # 231cc <__fini_array_end>
   10e00:	40f40433          	sub	s0,s0,a5
   10e04:	00912223          	sw	s1,4(sp)
   10e08:	00112623          	sw	ra,12(sp)
   10e0c:	40245493          	sra	s1,s0,0x2
   10e10:	02048063          	beqz	s1,10e30 <__libc_fini_array+0x48>
   10e14:	ffc40413          	add	s0,s0,-4
   10e18:	00f40433          	add	s0,s0,a5
   10e1c:	00042783          	lw	a5,0(s0)
   10e20:	fff48493          	add	s1,s1,-1
   10e24:	ffc40413          	add	s0,s0,-4
   10e28:	000780e7          	jalr	a5
   10e2c:	fe0498e3          	bnez	s1,10e1c <__libc_fini_array+0x34>
   10e30:	00c12083          	lw	ra,12(sp)
   10e34:	00812403          	lw	s0,8(sp)
   10e38:	00412483          	lw	s1,4(sp)
   10e3c:	01010113          	add	sp,sp,16
   10e40:	00008067          	ret

00010e44 <__retarget_lock_init>:
   10e44:	00008067          	ret

00010e48 <__retarget_lock_init_recursive>:
   10e48:	00008067          	ret

00010e4c <__retarget_lock_close>:
   10e4c:	00008067          	ret

00010e50 <__retarget_lock_close_recursive>:
   10e50:	00008067          	ret

00010e54 <__retarget_lock_acquire>:
   10e54:	00008067          	ret

00010e58 <__retarget_lock_acquire_recursive>:
   10e58:	00008067          	ret

00010e5c <__retarget_lock_try_acquire>:
   10e5c:	00100513          	li	a0,1
   10e60:	00008067          	ret

00010e64 <__retarget_lock_try_acquire_recursive>:
   10e64:	00100513          	li	a0,1
   10e68:	00008067          	ret

00010e6c <__retarget_lock_release>:
   10e6c:	00008067          	ret

00010e70 <__retarget_lock_release_recursive>:
   10e70:	00008067          	ret

00010e74 <memset>:
   10e74:	00f00313          	li	t1,15
   10e78:	00050713          	mv	a4,a0
   10e7c:	02c37e63          	bgeu	t1,a2,10eb8 <memset+0x44>
   10e80:	00f77793          	and	a5,a4,15
   10e84:	0a079063          	bnez	a5,10f24 <memset+0xb0>
   10e88:	08059263          	bnez	a1,10f0c <memset+0x98>
   10e8c:	ff067693          	and	a3,a2,-16
   10e90:	00f67613          	and	a2,a2,15
   10e94:	00e686b3          	add	a3,a3,a4
   10e98:	00b72023          	sw	a1,0(a4)
   10e9c:	00b72223          	sw	a1,4(a4)
   10ea0:	00b72423          	sw	a1,8(a4)
   10ea4:	00b72623          	sw	a1,12(a4)
   10ea8:	01070713          	add	a4,a4,16
   10eac:	fed766e3          	bltu	a4,a3,10e98 <memset+0x24>
   10eb0:	00061463          	bnez	a2,10eb8 <memset+0x44>
   10eb4:	00008067          	ret
   10eb8:	40c306b3          	sub	a3,t1,a2
   10ebc:	00269693          	sll	a3,a3,0x2
   10ec0:	00000297          	auipc	t0,0x0
   10ec4:	005686b3          	add	a3,a3,t0
   10ec8:	00c68067          	jr	12(a3)
   10ecc:	00b70723          	sb	a1,14(a4)
   10ed0:	00b706a3          	sb	a1,13(a4)
   10ed4:	00b70623          	sb	a1,12(a4)
   10ed8:	00b705a3          	sb	a1,11(a4)
   10edc:	00b70523          	sb	a1,10(a4)
   10ee0:	00b704a3          	sb	a1,9(a4)
   10ee4:	00b70423          	sb	a1,8(a4)
   10ee8:	00b703a3          	sb	a1,7(a4)
   10eec:	00b70323          	sb	a1,6(a4)
   10ef0:	00b702a3          	sb	a1,5(a4)
   10ef4:	00b70223          	sb	a1,4(a4)
   10ef8:	00b701a3          	sb	a1,3(a4)
   10efc:	00b70123          	sb	a1,2(a4)
   10f00:	00b700a3          	sb	a1,1(a4)
   10f04:	00b70023          	sb	a1,0(a4)
   10f08:	00008067          	ret
   10f0c:	0ff5f593          	zext.b	a1,a1
   10f10:	00859693          	sll	a3,a1,0x8
   10f14:	00d5e5b3          	or	a1,a1,a3
   10f18:	01059693          	sll	a3,a1,0x10
   10f1c:	00d5e5b3          	or	a1,a1,a3
   10f20:	f6dff06f          	j	10e8c <memset+0x18>
   10f24:	00279693          	sll	a3,a5,0x2
   10f28:	00000297          	auipc	t0,0x0
   10f2c:	005686b3          	add	a3,a3,t0
   10f30:	00008293          	mv	t0,ra
   10f34:	fa0680e7          	jalr	-96(a3)
   10f38:	00028093          	mv	ra,t0
   10f3c:	ff078793          	add	a5,a5,-16
   10f40:	40f70733          	sub	a4,a4,a5
   10f44:	00f60633          	add	a2,a2,a5
   10f48:	f6c378e3          	bgeu	t1,a2,10eb8 <memset+0x44>
   10f4c:	f3dff06f          	j	10e88 <memset+0x14>

00010f50 <__register_exitproc>:
   10f50:	fe010113          	add	sp,sp,-32
   10f54:	01212823          	sw	s2,16(sp)
   10f58:	f3818913          	add	s2,gp,-200 # 23908 <__atexit_recursive_mutex>
   10f5c:	00812c23          	sw	s0,24(sp)
   10f60:	00050413          	mv	s0,a0
   10f64:	00092503          	lw	a0,0(s2)
   10f68:	00912a23          	sw	s1,20(sp)
   10f6c:	01312623          	sw	s3,12(sp)
   10f70:	01412423          	sw	s4,8(sp)
   10f74:	00112e23          	sw	ra,28(sp)
   10f78:	00058493          	mv	s1,a1
   10f7c:	00060a13          	mv	s4,a2
   10f80:	00068993          	mv	s3,a3
   10f84:	ed5ff0ef          	jal	10e58 <__retarget_lock_acquire_recursive>
   10f88:	f7418713          	add	a4,gp,-140 # 23944 <__atexit>
   10f8c:	00072783          	lw	a5,0(a4)
   10f90:	08078663          	beqz	a5,1101c <__register_exitproc+0xcc>
   10f94:	0047a703          	lw	a4,4(a5)
   10f98:	01f00593          	li	a1,31
   10f9c:	00092503          	lw	a0,0(s2)
   10fa0:	08e5c463          	blt	a1,a4,11028 <__register_exitproc+0xd8>
   10fa4:	00271593          	sll	a1,a4,0x2
   10fa8:	02041e63          	bnez	s0,10fe4 <__register_exitproc+0x94>
   10fac:	00170713          	add	a4,a4,1
   10fb0:	00e7a223          	sw	a4,4(a5)
   10fb4:	00b787b3          	add	a5,a5,a1
   10fb8:	0097a423          	sw	s1,8(a5)
   10fbc:	eb5ff0ef          	jal	10e70 <__retarget_lock_release_recursive>
   10fc0:	00000513          	li	a0,0
   10fc4:	01c12083          	lw	ra,28(sp)
   10fc8:	01812403          	lw	s0,24(sp)
   10fcc:	01412483          	lw	s1,20(sp)
   10fd0:	01012903          	lw	s2,16(sp)
   10fd4:	00c12983          	lw	s3,12(sp)
   10fd8:	00812a03          	lw	s4,8(sp)
   10fdc:	02010113          	add	sp,sp,32
   10fe0:	00008067          	ret
   10fe4:	00b78833          	add	a6,a5,a1
   10fe8:	09482423          	sw	s4,136(a6)
   10fec:	1887a683          	lw	a3,392(a5)
   10ff0:	00100613          	li	a2,1
   10ff4:	00e61633          	sll	a2,a2,a4
   10ff8:	00c6e6b3          	or	a3,a3,a2
   10ffc:	18d7a423          	sw	a3,392(a5)
   11000:	11382423          	sw	s3,264(a6)
   11004:	00200693          	li	a3,2
   11008:	fad412e3          	bne	s0,a3,10fac <__register_exitproc+0x5c>
   1100c:	18c7a683          	lw	a3,396(a5)
   11010:	00c6e6b3          	or	a3,a3,a2
   11014:	18d7a623          	sw	a3,396(a5)
   11018:	f95ff06f          	j	10fac <__register_exitproc+0x5c>
   1101c:	0e018793          	add	a5,gp,224 # 23ab0 <__atexit0>
   11020:	00f72023          	sw	a5,0(a4)
   11024:	f71ff06f          	j	10f94 <__register_exitproc+0x44>
   11028:	e49ff0ef          	jal	10e70 <__retarget_lock_release_recursive>
   1102c:	fff00513          	li	a0,-1
   11030:	f95ff06f          	j	10fc4 <__register_exitproc+0x74>

00011034 <__call_exitprocs>:
   11034:	fd010113          	add	sp,sp,-48
   11038:	01712623          	sw	s7,12(sp)
   1103c:	f3818b93          	add	s7,gp,-200 # 23908 <__atexit_recursive_mutex>
   11040:	01612823          	sw	s6,16(sp)
   11044:	00050b13          	mv	s6,a0
   11048:	000ba503          	lw	a0,0(s7)
   1104c:	01412c23          	sw	s4,24(sp)
   11050:	f7418a13          	add	s4,gp,-140 # 23944 <__atexit>
   11054:	03212023          	sw	s2,32(sp)
   11058:	01812423          	sw	s8,8(sp)
   1105c:	02112623          	sw	ra,44(sp)
   11060:	00058c13          	mv	s8,a1
   11064:	df5ff0ef          	jal	10e58 <__retarget_lock_acquire_recursive>
   11068:	000a2903          	lw	s2,0(s4)
   1106c:	08090c63          	beqz	s2,11104 <__call_exitprocs+0xd0>
   11070:	01312e23          	sw	s3,28(sp)
   11074:	01512a23          	sw	s5,20(sp)
   11078:	02812423          	sw	s0,40(sp)
   1107c:	02912223          	sw	s1,36(sp)
   11080:	01912223          	sw	s9,4(sp)
   11084:	fff00993          	li	s3,-1
   11088:	00100a93          	li	s5,1
   1108c:	00492483          	lw	s1,4(s2)
   11090:	fff48413          	add	s0,s1,-1
   11094:	04044e63          	bltz	s0,110f0 <__call_exitprocs+0xbc>
   11098:	00249493          	sll	s1,s1,0x2
   1109c:	009904b3          	add	s1,s2,s1
   110a0:	080c1463          	bnez	s8,11128 <__call_exitprocs+0xf4>
   110a4:	00492783          	lw	a5,4(s2)
   110a8:	0044a683          	lw	a3,4(s1)
   110ac:	fff78793          	add	a5,a5,-1
   110b0:	0c878063          	beq	a5,s0,11170 <__call_exitprocs+0x13c>
   110b4:	0004a223          	sw	zero,4(s1)
   110b8:	02068663          	beqz	a3,110e4 <__call_exitprocs+0xb0>
   110bc:	18892783          	lw	a5,392(s2)
   110c0:	008a9733          	sll	a4,s5,s0
   110c4:	00492c83          	lw	s9,4(s2)
   110c8:	00f777b3          	and	a5,a4,a5
   110cc:	06079a63          	bnez	a5,11140 <__call_exitprocs+0x10c>
   110d0:	000680e7          	jalr	a3
   110d4:	00492703          	lw	a4,4(s2)
   110d8:	000a2783          	lw	a5,0(s4)
   110dc:	09971463          	bne	a4,s9,11164 <__call_exitprocs+0x130>
   110e0:	09279263          	bne	a5,s2,11164 <__call_exitprocs+0x130>
   110e4:	fff40413          	add	s0,s0,-1
   110e8:	ffc48493          	add	s1,s1,-4
   110ec:	fb341ae3          	bne	s0,s3,110a0 <__call_exitprocs+0x6c>
   110f0:	02812403          	lw	s0,40(sp)
   110f4:	02412483          	lw	s1,36(sp)
   110f8:	01c12983          	lw	s3,28(sp)
   110fc:	01412a83          	lw	s5,20(sp)
   11100:	00412c83          	lw	s9,4(sp)
   11104:	000ba503          	lw	a0,0(s7)
   11108:	02c12083          	lw	ra,44(sp)
   1110c:	02012903          	lw	s2,32(sp)
   11110:	01812a03          	lw	s4,24(sp)
   11114:	01012b03          	lw	s6,16(sp)
   11118:	00c12b83          	lw	s7,12(sp)
   1111c:	00812c03          	lw	s8,8(sp)
   11120:	03010113          	add	sp,sp,48
   11124:	d4dff06f          	j	10e70 <__retarget_lock_release_recursive>
   11128:	1044a783          	lw	a5,260(s1)
   1112c:	f7878ce3          	beq	a5,s8,110a4 <__call_exitprocs+0x70>
   11130:	fff40413          	add	s0,s0,-1
   11134:	ffc48493          	add	s1,s1,-4
   11138:	ff3418e3          	bne	s0,s3,11128 <__call_exitprocs+0xf4>
   1113c:	fb5ff06f          	j	110f0 <__call_exitprocs+0xbc>
   11140:	18c92783          	lw	a5,396(s2)
   11144:	0844a583          	lw	a1,132(s1)
   11148:	00f77733          	and	a4,a4,a5
   1114c:	02071663          	bnez	a4,11178 <__call_exitprocs+0x144>
   11150:	000b0513          	mv	a0,s6
   11154:	000680e7          	jalr	a3
   11158:	00492703          	lw	a4,4(s2)
   1115c:	000a2783          	lw	a5,0(s4)
   11160:	f99700e3          	beq	a4,s9,110e0 <__call_exitprocs+0xac>
   11164:	f80786e3          	beqz	a5,110f0 <__call_exitprocs+0xbc>
   11168:	00078913          	mv	s2,a5
   1116c:	f21ff06f          	j	1108c <__call_exitprocs+0x58>
   11170:	00892223          	sw	s0,4(s2)
   11174:	f45ff06f          	j	110b8 <__call_exitprocs+0x84>
   11178:	00058513          	mv	a0,a1
   1117c:	000680e7          	jalr	a3
   11180:	f55ff06f          	j	110d4 <__call_exitprocs+0xa0>

00011184 <_malloc_trim_r>:
   11184:	fe010113          	add	sp,sp,-32
   11188:	00812c23          	sw	s0,24(sp)
   1118c:	00912a23          	sw	s1,20(sp)
   11190:	01212823          	sw	s2,16(sp)
   11194:	01312623          	sw	s3,12(sp)
   11198:	01412423          	sw	s4,8(sp)
   1119c:	00058993          	mv	s3,a1
   111a0:	00112e23          	sw	ra,28(sp)
   111a4:	00050913          	mv	s2,a0
   111a8:	00012a17          	auipc	s4,0x12
   111ac:	158a0a13          	add	s4,s4,344 # 23300 <__malloc_av_>
   111b0:	3d9000ef          	jal	11d88 <__malloc_lock>
   111b4:	008a2703          	lw	a4,8(s4)
   111b8:	000017b7          	lui	a5,0x1
   111bc:	fef78793          	add	a5,a5,-17 # fef <exit-0xf0a5>
   111c0:	00472483          	lw	s1,4(a4)
   111c4:	00001737          	lui	a4,0x1
   111c8:	ffc4f493          	and	s1,s1,-4
   111cc:	00f48433          	add	s0,s1,a5
   111d0:	41340433          	sub	s0,s0,s3
   111d4:	00c45413          	srl	s0,s0,0xc
   111d8:	fff40413          	add	s0,s0,-1
   111dc:	00c41413          	sll	s0,s0,0xc
   111e0:	00e44e63          	blt	s0,a4,111fc <_malloc_trim_r+0x78>
   111e4:	00000593          	li	a1,0
   111e8:	00090513          	mv	a0,s2
   111ec:	0e8070ef          	jal	182d4 <_sbrk_r>
   111f0:	008a2783          	lw	a5,8(s4)
   111f4:	009787b3          	add	a5,a5,s1
   111f8:	02f50863          	beq	a0,a5,11228 <_malloc_trim_r+0xa4>
   111fc:	00090513          	mv	a0,s2
   11200:	391000ef          	jal	11d90 <__malloc_unlock>
   11204:	01c12083          	lw	ra,28(sp)
   11208:	01812403          	lw	s0,24(sp)
   1120c:	01412483          	lw	s1,20(sp)
   11210:	01012903          	lw	s2,16(sp)
   11214:	00c12983          	lw	s3,12(sp)
   11218:	00812a03          	lw	s4,8(sp)
   1121c:	00000513          	li	a0,0
   11220:	02010113          	add	sp,sp,32
   11224:	00008067          	ret
   11228:	408005b3          	neg	a1,s0
   1122c:	00090513          	mv	a0,s2
   11230:	0a4070ef          	jal	182d4 <_sbrk_r>
   11234:	fff00793          	li	a5,-1
   11238:	04f50863          	beq	a0,a5,11288 <_malloc_trim_r+0x104>
   1123c:	27018713          	add	a4,gp,624 # 23c40 <__malloc_current_mallinfo>
   11240:	00072783          	lw	a5,0(a4) # 1000 <exit-0xf094>
   11244:	008a2683          	lw	a3,8(s4)
   11248:	408484b3          	sub	s1,s1,s0
   1124c:	0014e493          	or	s1,s1,1
   11250:	408787b3          	sub	a5,a5,s0
   11254:	00090513          	mv	a0,s2
   11258:	0096a223          	sw	s1,4(a3)
   1125c:	00f72023          	sw	a5,0(a4)
   11260:	331000ef          	jal	11d90 <__malloc_unlock>
   11264:	01c12083          	lw	ra,28(sp)
   11268:	01812403          	lw	s0,24(sp)
   1126c:	01412483          	lw	s1,20(sp)
   11270:	01012903          	lw	s2,16(sp)
   11274:	00c12983          	lw	s3,12(sp)
   11278:	00812a03          	lw	s4,8(sp)
   1127c:	00100513          	li	a0,1
   11280:	02010113          	add	sp,sp,32
   11284:	00008067          	ret
   11288:	00000593          	li	a1,0
   1128c:	00090513          	mv	a0,s2
   11290:	044070ef          	jal	182d4 <_sbrk_r>
   11294:	008a2703          	lw	a4,8(s4)
   11298:	00f00693          	li	a3,15
   1129c:	40e507b3          	sub	a5,a0,a4
   112a0:	f4f6dee3          	bge	a3,a5,111fc <_malloc_trim_r+0x78>
   112a4:	f3c1a683          	lw	a3,-196(gp) # 2390c <__malloc_sbrk_base>
   112a8:	40d50533          	sub	a0,a0,a3
   112ac:	0017e793          	or	a5,a5,1
   112b0:	26a1a823          	sw	a0,624(gp) # 23c40 <__malloc_current_mallinfo>
   112b4:	00f72223          	sw	a5,4(a4)
   112b8:	f45ff06f          	j	111fc <_malloc_trim_r+0x78>

000112bc <_free_r>:
   112bc:	18058263          	beqz	a1,11440 <_free_r+0x184>
   112c0:	ff010113          	add	sp,sp,-16
   112c4:	00812423          	sw	s0,8(sp)
   112c8:	00912223          	sw	s1,4(sp)
   112cc:	00058413          	mv	s0,a1
   112d0:	00050493          	mv	s1,a0
   112d4:	00112623          	sw	ra,12(sp)
   112d8:	2b1000ef          	jal	11d88 <__malloc_lock>
   112dc:	ffc42583          	lw	a1,-4(s0)
   112e0:	ff840713          	add	a4,s0,-8
   112e4:	00012517          	auipc	a0,0x12
   112e8:	01c50513          	add	a0,a0,28 # 23300 <__malloc_av_>
   112ec:	ffe5f793          	and	a5,a1,-2
   112f0:	00f70633          	add	a2,a4,a5
   112f4:	00462683          	lw	a3,4(a2)
   112f8:	00852803          	lw	a6,8(a0)
   112fc:	ffc6f693          	and	a3,a3,-4
   11300:	1ac80263          	beq	a6,a2,114a4 <_free_r+0x1e8>
   11304:	00d62223          	sw	a3,4(a2)
   11308:	0015f593          	and	a1,a1,1
   1130c:	00d60833          	add	a6,a2,a3
   11310:	0a059063          	bnez	a1,113b0 <_free_r+0xf4>
   11314:	ff842303          	lw	t1,-8(s0)
   11318:	00482583          	lw	a1,4(a6)
   1131c:	00012897          	auipc	a7,0x12
   11320:	fec88893          	add	a7,a7,-20 # 23308 <__malloc_av_+0x8>
   11324:	40670733          	sub	a4,a4,t1
   11328:	00872803          	lw	a6,8(a4)
   1132c:	006787b3          	add	a5,a5,t1
   11330:	0015f593          	and	a1,a1,1
   11334:	15180263          	beq	a6,a7,11478 <_free_r+0x1bc>
   11338:	00c72303          	lw	t1,12(a4)
   1133c:	00682623          	sw	t1,12(a6)
   11340:	01032423          	sw	a6,8(t1)
   11344:	1a058663          	beqz	a1,114f0 <_free_r+0x234>
   11348:	0017e693          	or	a3,a5,1
   1134c:	00d72223          	sw	a3,4(a4)
   11350:	00f62023          	sw	a5,0(a2)
   11354:	1ff00693          	li	a3,511
   11358:	06f6ec63          	bltu	a3,a5,113d0 <_free_r+0x114>
   1135c:	ff87f693          	and	a3,a5,-8
   11360:	00868693          	add	a3,a3,8
   11364:	00452583          	lw	a1,4(a0)
   11368:	00d506b3          	add	a3,a0,a3
   1136c:	0006a603          	lw	a2,0(a3)
   11370:	0057d813          	srl	a6,a5,0x5
   11374:	00100793          	li	a5,1
   11378:	010797b3          	sll	a5,a5,a6
   1137c:	00b7e7b3          	or	a5,a5,a1
   11380:	ff868593          	add	a1,a3,-8
   11384:	00b72623          	sw	a1,12(a4)
   11388:	00c72423          	sw	a2,8(a4)
   1138c:	00f52223          	sw	a5,4(a0)
   11390:	00e6a023          	sw	a4,0(a3)
   11394:	00e62623          	sw	a4,12(a2)
   11398:	00812403          	lw	s0,8(sp)
   1139c:	00c12083          	lw	ra,12(sp)
   113a0:	00048513          	mv	a0,s1
   113a4:	00412483          	lw	s1,4(sp)
   113a8:	01010113          	add	sp,sp,16
   113ac:	1e50006f          	j	11d90 <__malloc_unlock>
   113b0:	00482583          	lw	a1,4(a6)
   113b4:	0015f593          	and	a1,a1,1
   113b8:	08058663          	beqz	a1,11444 <_free_r+0x188>
   113bc:	0017e693          	or	a3,a5,1
   113c0:	fed42e23          	sw	a3,-4(s0)
   113c4:	00f62023          	sw	a5,0(a2)
   113c8:	1ff00693          	li	a3,511
   113cc:	f8f6f8e3          	bgeu	a3,a5,1135c <_free_r+0xa0>
   113d0:	0097d693          	srl	a3,a5,0x9
   113d4:	00400613          	li	a2,4
   113d8:	12d66063          	bltu	a2,a3,114f8 <_free_r+0x23c>
   113dc:	0067d693          	srl	a3,a5,0x6
   113e0:	03968593          	add	a1,a3,57
   113e4:	03868613          	add	a2,a3,56
   113e8:	00359593          	sll	a1,a1,0x3
   113ec:	00b505b3          	add	a1,a0,a1
   113f0:	0005a683          	lw	a3,0(a1)
   113f4:	ff858593          	add	a1,a1,-8
   113f8:	00d59863          	bne	a1,a3,11408 <_free_r+0x14c>
   113fc:	1540006f          	j	11550 <_free_r+0x294>
   11400:	0086a683          	lw	a3,8(a3)
   11404:	00d58863          	beq	a1,a3,11414 <_free_r+0x158>
   11408:	0046a603          	lw	a2,4(a3)
   1140c:	ffc67613          	and	a2,a2,-4
   11410:	fec7e8e3          	bltu	a5,a2,11400 <_free_r+0x144>
   11414:	00c6a583          	lw	a1,12(a3)
   11418:	00b72623          	sw	a1,12(a4)
   1141c:	00d72423          	sw	a3,8(a4)
   11420:	00812403          	lw	s0,8(sp)
   11424:	00c12083          	lw	ra,12(sp)
   11428:	00e5a423          	sw	a4,8(a1)
   1142c:	00048513          	mv	a0,s1
   11430:	00412483          	lw	s1,4(sp)
   11434:	00e6a623          	sw	a4,12(a3)
   11438:	01010113          	add	sp,sp,16
   1143c:	1550006f          	j	11d90 <__malloc_unlock>
   11440:	00008067          	ret
   11444:	00d787b3          	add	a5,a5,a3
   11448:	00012897          	auipc	a7,0x12
   1144c:	ec088893          	add	a7,a7,-320 # 23308 <__malloc_av_+0x8>
   11450:	00862683          	lw	a3,8(a2)
   11454:	0d168c63          	beq	a3,a7,1152c <_free_r+0x270>
   11458:	00c62803          	lw	a6,12(a2)
   1145c:	0017e593          	or	a1,a5,1
   11460:	00f70633          	add	a2,a4,a5
   11464:	0106a623          	sw	a6,12(a3)
   11468:	00d82423          	sw	a3,8(a6)
   1146c:	00b72223          	sw	a1,4(a4)
   11470:	00f62023          	sw	a5,0(a2)
   11474:	ee1ff06f          	j	11354 <_free_r+0x98>
   11478:	12059c63          	bnez	a1,115b0 <_free_r+0x2f4>
   1147c:	00862583          	lw	a1,8(a2)
   11480:	00c62603          	lw	a2,12(a2)
   11484:	00f686b3          	add	a3,a3,a5
   11488:	0016e793          	or	a5,a3,1
   1148c:	00c5a623          	sw	a2,12(a1)
   11490:	00b62423          	sw	a1,8(a2)
   11494:	00f72223          	sw	a5,4(a4)
   11498:	00d70733          	add	a4,a4,a3
   1149c:	00d72023          	sw	a3,0(a4)
   114a0:	ef9ff06f          	j	11398 <_free_r+0xdc>
   114a4:	0015f593          	and	a1,a1,1
   114a8:	00d786b3          	add	a3,a5,a3
   114ac:	02059063          	bnez	a1,114cc <_free_r+0x210>
   114b0:	ff842583          	lw	a1,-8(s0)
   114b4:	40b70733          	sub	a4,a4,a1
   114b8:	00c72783          	lw	a5,12(a4)
   114bc:	00872603          	lw	a2,8(a4)
   114c0:	00b686b3          	add	a3,a3,a1
   114c4:	00f62623          	sw	a5,12(a2)
   114c8:	00c7a423          	sw	a2,8(a5)
   114cc:	0016e793          	or	a5,a3,1
   114d0:	00f72223          	sw	a5,4(a4)
   114d4:	00e52423          	sw	a4,8(a0)
   114d8:	f401a783          	lw	a5,-192(gp) # 23910 <__malloc_trim_threshold>
   114dc:	eaf6eee3          	bltu	a3,a5,11398 <_free_r+0xdc>
   114e0:	f801a583          	lw	a1,-128(gp) # 23950 <__malloc_top_pad>
   114e4:	00048513          	mv	a0,s1
   114e8:	c9dff0ef          	jal	11184 <_malloc_trim_r>
   114ec:	eadff06f          	j	11398 <_free_r+0xdc>
   114f0:	00d787b3          	add	a5,a5,a3
   114f4:	f5dff06f          	j	11450 <_free_r+0x194>
   114f8:	01400613          	li	a2,20
   114fc:	02d67063          	bgeu	a2,a3,1151c <_free_r+0x260>
   11500:	05400613          	li	a2,84
   11504:	06d66463          	bltu	a2,a3,1156c <_free_r+0x2b0>
   11508:	00c7d693          	srl	a3,a5,0xc
   1150c:	06f68593          	add	a1,a3,111
   11510:	06e68613          	add	a2,a3,110
   11514:	00359593          	sll	a1,a1,0x3
   11518:	ed5ff06f          	j	113ec <_free_r+0x130>
   1151c:	05c68593          	add	a1,a3,92
   11520:	05b68613          	add	a2,a3,91
   11524:	00359593          	sll	a1,a1,0x3
   11528:	ec5ff06f          	j	113ec <_free_r+0x130>
   1152c:	00e52a23          	sw	a4,20(a0)
   11530:	00e52823          	sw	a4,16(a0)
   11534:	0017e693          	or	a3,a5,1
   11538:	01172623          	sw	a7,12(a4)
   1153c:	01172423          	sw	a7,8(a4)
   11540:	00d72223          	sw	a3,4(a4)
   11544:	00f70733          	add	a4,a4,a5
   11548:	00f72023          	sw	a5,0(a4)
   1154c:	e4dff06f          	j	11398 <_free_r+0xdc>
   11550:	00452803          	lw	a6,4(a0)
   11554:	40265613          	sra	a2,a2,0x2
   11558:	00100793          	li	a5,1
   1155c:	00c797b3          	sll	a5,a5,a2
   11560:	0107e7b3          	or	a5,a5,a6
   11564:	00f52223          	sw	a5,4(a0)
   11568:	eb1ff06f          	j	11418 <_free_r+0x15c>
   1156c:	15400613          	li	a2,340
   11570:	00d66c63          	bltu	a2,a3,11588 <_free_r+0x2cc>
   11574:	00f7d693          	srl	a3,a5,0xf
   11578:	07868593          	add	a1,a3,120
   1157c:	07768613          	add	a2,a3,119
   11580:	00359593          	sll	a1,a1,0x3
   11584:	e69ff06f          	j	113ec <_free_r+0x130>
   11588:	55400613          	li	a2,1364
   1158c:	00d66c63          	bltu	a2,a3,115a4 <_free_r+0x2e8>
   11590:	0127d693          	srl	a3,a5,0x12
   11594:	07d68593          	add	a1,a3,125
   11598:	07c68613          	add	a2,a3,124
   1159c:	00359593          	sll	a1,a1,0x3
   115a0:	e4dff06f          	j	113ec <_free_r+0x130>
   115a4:	3f800593          	li	a1,1016
   115a8:	07e00613          	li	a2,126
   115ac:	e41ff06f          	j	113ec <_free_r+0x130>
   115b0:	0017e693          	or	a3,a5,1
   115b4:	00d72223          	sw	a3,4(a4)
   115b8:	00f62023          	sw	a5,0(a2)
   115bc:	dddff06f          	j	11398 <_free_r+0xdc>

000115c0 <_malloc_r>:
   115c0:	fd010113          	add	sp,sp,-48
   115c4:	03212023          	sw	s2,32(sp)
   115c8:	02112623          	sw	ra,44(sp)
   115cc:	02812423          	sw	s0,40(sp)
   115d0:	02912223          	sw	s1,36(sp)
   115d4:	01312e23          	sw	s3,28(sp)
   115d8:	00b58793          	add	a5,a1,11
   115dc:	01600713          	li	a4,22
   115e0:	00050913          	mv	s2,a0
   115e4:	08f76263          	bltu	a4,a5,11668 <_malloc_r+0xa8>
   115e8:	01000793          	li	a5,16
   115ec:	20b7e663          	bltu	a5,a1,117f8 <_malloc_r+0x238>
   115f0:	798000ef          	jal	11d88 <__malloc_lock>
   115f4:	01800793          	li	a5,24
   115f8:	00200593          	li	a1,2
   115fc:	01000493          	li	s1,16
   11600:	00012997          	auipc	s3,0x12
   11604:	d0098993          	add	s3,s3,-768 # 23300 <__malloc_av_>
   11608:	00f987b3          	add	a5,s3,a5
   1160c:	0047a403          	lw	s0,4(a5)
   11610:	ff878713          	add	a4,a5,-8
   11614:	34e40a63          	beq	s0,a4,11968 <_malloc_r+0x3a8>
   11618:	00442783          	lw	a5,4(s0)
   1161c:	00c42683          	lw	a3,12(s0)
   11620:	00842603          	lw	a2,8(s0)
   11624:	ffc7f793          	and	a5,a5,-4
   11628:	00f407b3          	add	a5,s0,a5
   1162c:	0047a703          	lw	a4,4(a5)
   11630:	00d62623          	sw	a3,12(a2)
   11634:	00c6a423          	sw	a2,8(a3)
   11638:	00176713          	or	a4,a4,1
   1163c:	00090513          	mv	a0,s2
   11640:	00e7a223          	sw	a4,4(a5)
   11644:	74c000ef          	jal	11d90 <__malloc_unlock>
   11648:	00840513          	add	a0,s0,8
   1164c:	02c12083          	lw	ra,44(sp)
   11650:	02812403          	lw	s0,40(sp)
   11654:	02412483          	lw	s1,36(sp)
   11658:	02012903          	lw	s2,32(sp)
   1165c:	01c12983          	lw	s3,28(sp)
   11660:	03010113          	add	sp,sp,48
   11664:	00008067          	ret
   11668:	ff87f493          	and	s1,a5,-8
   1166c:	1807c663          	bltz	a5,117f8 <_malloc_r+0x238>
   11670:	18b4e463          	bltu	s1,a1,117f8 <_malloc_r+0x238>
   11674:	714000ef          	jal	11d88 <__malloc_lock>
   11678:	1f700793          	li	a5,503
   1167c:	4097f063          	bgeu	a5,s1,11a7c <_malloc_r+0x4bc>
   11680:	0094d793          	srl	a5,s1,0x9
   11684:	18078263          	beqz	a5,11808 <_malloc_r+0x248>
   11688:	00400713          	li	a4,4
   1168c:	34f76663          	bltu	a4,a5,119d8 <_malloc_r+0x418>
   11690:	0064d793          	srl	a5,s1,0x6
   11694:	03978593          	add	a1,a5,57
   11698:	03878813          	add	a6,a5,56
   1169c:	00359613          	sll	a2,a1,0x3
   116a0:	00012997          	auipc	s3,0x12
   116a4:	c6098993          	add	s3,s3,-928 # 23300 <__malloc_av_>
   116a8:	00c98633          	add	a2,s3,a2
   116ac:	00462403          	lw	s0,4(a2)
   116b0:	ff860613          	add	a2,a2,-8
   116b4:	02860863          	beq	a2,s0,116e4 <_malloc_r+0x124>
   116b8:	00f00513          	li	a0,15
   116bc:	0140006f          	j	116d0 <_malloc_r+0x110>
   116c0:	00c42683          	lw	a3,12(s0)
   116c4:	28075e63          	bgez	a4,11960 <_malloc_r+0x3a0>
   116c8:	00d60e63          	beq	a2,a3,116e4 <_malloc_r+0x124>
   116cc:	00068413          	mv	s0,a3
   116d0:	00442783          	lw	a5,4(s0)
   116d4:	ffc7f793          	and	a5,a5,-4
   116d8:	40978733          	sub	a4,a5,s1
   116dc:	fee552e3          	bge	a0,a4,116c0 <_malloc_r+0x100>
   116e0:	00080593          	mv	a1,a6
   116e4:	0109a403          	lw	s0,16(s3)
   116e8:	00012897          	auipc	a7,0x12
   116ec:	c2088893          	add	a7,a7,-992 # 23308 <__malloc_av_+0x8>
   116f0:	27140463          	beq	s0,a7,11958 <_malloc_r+0x398>
   116f4:	00442783          	lw	a5,4(s0)
   116f8:	00f00693          	li	a3,15
   116fc:	ffc7f793          	and	a5,a5,-4
   11700:	40978733          	sub	a4,a5,s1
   11704:	38e6c263          	blt	a3,a4,11a88 <_malloc_r+0x4c8>
   11708:	0119aa23          	sw	a7,20(s3)
   1170c:	0119a823          	sw	a7,16(s3)
   11710:	34075663          	bgez	a4,11a5c <_malloc_r+0x49c>
   11714:	1ff00713          	li	a4,511
   11718:	0049a503          	lw	a0,4(s3)
   1171c:	24f76e63          	bltu	a4,a5,11978 <_malloc_r+0x3b8>
   11720:	ff87f713          	and	a4,a5,-8
   11724:	00870713          	add	a4,a4,8
   11728:	00e98733          	add	a4,s3,a4
   1172c:	00072683          	lw	a3,0(a4)
   11730:	0057d613          	srl	a2,a5,0x5
   11734:	00100793          	li	a5,1
   11738:	00c797b3          	sll	a5,a5,a2
   1173c:	00f56533          	or	a0,a0,a5
   11740:	ff870793          	add	a5,a4,-8
   11744:	00f42623          	sw	a5,12(s0)
   11748:	00d42423          	sw	a3,8(s0)
   1174c:	00a9a223          	sw	a0,4(s3)
   11750:	00872023          	sw	s0,0(a4)
   11754:	0086a623          	sw	s0,12(a3)
   11758:	4025d793          	sra	a5,a1,0x2
   1175c:	00100613          	li	a2,1
   11760:	00f61633          	sll	a2,a2,a5
   11764:	0ac56a63          	bltu	a0,a2,11818 <_malloc_r+0x258>
   11768:	00a677b3          	and	a5,a2,a0
   1176c:	02079463          	bnez	a5,11794 <_malloc_r+0x1d4>
   11770:	00161613          	sll	a2,a2,0x1
   11774:	ffc5f593          	and	a1,a1,-4
   11778:	00a677b3          	and	a5,a2,a0
   1177c:	00458593          	add	a1,a1,4
   11780:	00079a63          	bnez	a5,11794 <_malloc_r+0x1d4>
   11784:	00161613          	sll	a2,a2,0x1
   11788:	00a677b3          	and	a5,a2,a0
   1178c:	00458593          	add	a1,a1,4
   11790:	fe078ae3          	beqz	a5,11784 <_malloc_r+0x1c4>
   11794:	00f00813          	li	a6,15
   11798:	00359313          	sll	t1,a1,0x3
   1179c:	00698333          	add	t1,s3,t1
   117a0:	00030513          	mv	a0,t1
   117a4:	00c52783          	lw	a5,12(a0)
   117a8:	00058e13          	mv	t3,a1
   117ac:	24f50863          	beq	a0,a5,119fc <_malloc_r+0x43c>
   117b0:	0047a703          	lw	a4,4(a5)
   117b4:	00078413          	mv	s0,a5
   117b8:	00c7a783          	lw	a5,12(a5)
   117bc:	ffc77713          	and	a4,a4,-4
   117c0:	409706b3          	sub	a3,a4,s1
   117c4:	24d84863          	blt	a6,a3,11a14 <_malloc_r+0x454>
   117c8:	fe06c2e3          	bltz	a3,117ac <_malloc_r+0x1ec>
   117cc:	00e40733          	add	a4,s0,a4
   117d0:	00472683          	lw	a3,4(a4)
   117d4:	00842603          	lw	a2,8(s0)
   117d8:	00090513          	mv	a0,s2
   117dc:	0016e693          	or	a3,a3,1
   117e0:	00d72223          	sw	a3,4(a4)
   117e4:	00f62623          	sw	a5,12(a2)
   117e8:	00c7a423          	sw	a2,8(a5)
   117ec:	5a4000ef          	jal	11d90 <__malloc_unlock>
   117f0:	00840513          	add	a0,s0,8
   117f4:	e59ff06f          	j	1164c <_malloc_r+0x8c>
   117f8:	00c00793          	li	a5,12
   117fc:	00f92023          	sw	a5,0(s2)
   11800:	00000513          	li	a0,0
   11804:	e49ff06f          	j	1164c <_malloc_r+0x8c>
   11808:	20000613          	li	a2,512
   1180c:	04000593          	li	a1,64
   11810:	03f00813          	li	a6,63
   11814:	e8dff06f          	j	116a0 <_malloc_r+0xe0>
   11818:	0089a403          	lw	s0,8(s3)
   1181c:	01612823          	sw	s6,16(sp)
   11820:	00442783          	lw	a5,4(s0)
   11824:	ffc7fb13          	and	s6,a5,-4
   11828:	009b6863          	bltu	s6,s1,11838 <_malloc_r+0x278>
   1182c:	409b0733          	sub	a4,s6,s1
   11830:	00f00793          	li	a5,15
   11834:	0ee7c063          	blt	a5,a4,11914 <_malloc_r+0x354>
   11838:	01912223          	sw	s9,4(sp)
   1183c:	f3c18c93          	add	s9,gp,-196 # 2390c <__malloc_sbrk_base>
   11840:	000ca703          	lw	a4,0(s9)
   11844:	01412c23          	sw	s4,24(sp)
   11848:	01512a23          	sw	s5,20(sp)
   1184c:	01712623          	sw	s7,12(sp)
   11850:	f801aa83          	lw	s5,-128(gp) # 23950 <__malloc_top_pad>
   11854:	fff00793          	li	a5,-1
   11858:	01640a33          	add	s4,s0,s6
   1185c:	01548ab3          	add	s5,s1,s5
   11860:	3cf70a63          	beq	a4,a5,11c34 <_malloc_r+0x674>
   11864:	000017b7          	lui	a5,0x1
   11868:	00f78793          	add	a5,a5,15 # 100f <exit-0xf085>
   1186c:	00fa8ab3          	add	s5,s5,a5
   11870:	fffff7b7          	lui	a5,0xfffff
   11874:	00fafab3          	and	s5,s5,a5
   11878:	000a8593          	mv	a1,s5
   1187c:	00090513          	mv	a0,s2
   11880:	255060ef          	jal	182d4 <_sbrk_r>
   11884:	fff00793          	li	a5,-1
   11888:	00050b93          	mv	s7,a0
   1188c:	44f50e63          	beq	a0,a5,11ce8 <_malloc_r+0x728>
   11890:	01812423          	sw	s8,8(sp)
   11894:	25456263          	bltu	a0,s4,11ad8 <_malloc_r+0x518>
   11898:	27018c13          	add	s8,gp,624 # 23c40 <__malloc_current_mallinfo>
   1189c:	000c2583          	lw	a1,0(s8)
   118a0:	00ba85b3          	add	a1,s5,a1
   118a4:	00bc2023          	sw	a1,0(s8)
   118a8:	00058713          	mv	a4,a1
   118ac:	2aaa1a63          	bne	s4,a0,11b60 <_malloc_r+0x5a0>
   118b0:	01451793          	sll	a5,a0,0x14
   118b4:	2a079663          	bnez	a5,11b60 <_malloc_r+0x5a0>
   118b8:	0089ab83          	lw	s7,8(s3)
   118bc:	015b07b3          	add	a5,s6,s5
   118c0:	0017e793          	or	a5,a5,1
   118c4:	00fba223          	sw	a5,4(s7)
   118c8:	f7c18713          	add	a4,gp,-132 # 2394c <__malloc_max_sbrked_mem>
   118cc:	00072683          	lw	a3,0(a4)
   118d0:	00b6f463          	bgeu	a3,a1,118d8 <_malloc_r+0x318>
   118d4:	00b72023          	sw	a1,0(a4)
   118d8:	f7818713          	add	a4,gp,-136 # 23948 <__malloc_max_total_mem>
   118dc:	00072683          	lw	a3,0(a4)
   118e0:	00b6f463          	bgeu	a3,a1,118e8 <_malloc_r+0x328>
   118e4:	00b72023          	sw	a1,0(a4)
   118e8:	00812c03          	lw	s8,8(sp)
   118ec:	000b8413          	mv	s0,s7
   118f0:	ffc7f793          	and	a5,a5,-4
   118f4:	40978733          	sub	a4,a5,s1
   118f8:	3897ea63          	bltu	a5,s1,11c8c <_malloc_r+0x6cc>
   118fc:	00f00793          	li	a5,15
   11900:	38e7d663          	bge	a5,a4,11c8c <_malloc_r+0x6cc>
   11904:	01812a03          	lw	s4,24(sp)
   11908:	01412a83          	lw	s5,20(sp)
   1190c:	00c12b83          	lw	s7,12(sp)
   11910:	00412c83          	lw	s9,4(sp)
   11914:	0014e793          	or	a5,s1,1
   11918:	00f42223          	sw	a5,4(s0)
   1191c:	009404b3          	add	s1,s0,s1
   11920:	0099a423          	sw	s1,8(s3)
   11924:	00176713          	or	a4,a4,1
   11928:	00090513          	mv	a0,s2
   1192c:	00e4a223          	sw	a4,4(s1)
   11930:	460000ef          	jal	11d90 <__malloc_unlock>
   11934:	02c12083          	lw	ra,44(sp)
   11938:	00840513          	add	a0,s0,8
   1193c:	02812403          	lw	s0,40(sp)
   11940:	01012b03          	lw	s6,16(sp)
   11944:	02412483          	lw	s1,36(sp)
   11948:	02012903          	lw	s2,32(sp)
   1194c:	01c12983          	lw	s3,28(sp)
   11950:	03010113          	add	sp,sp,48
   11954:	00008067          	ret
   11958:	0049a503          	lw	a0,4(s3)
   1195c:	dfdff06f          	j	11758 <_malloc_r+0x198>
   11960:	00842603          	lw	a2,8(s0)
   11964:	cc5ff06f          	j	11628 <_malloc_r+0x68>
   11968:	00c7a403          	lw	s0,12(a5) # fffff00c <__BSS_END__+0xfffdb0fc>
   1196c:	00258593          	add	a1,a1,2
   11970:	d6878ae3          	beq	a5,s0,116e4 <_malloc_r+0x124>
   11974:	ca5ff06f          	j	11618 <_malloc_r+0x58>
   11978:	0097d713          	srl	a4,a5,0x9
   1197c:	00400693          	li	a3,4
   11980:	14e6f263          	bgeu	a3,a4,11ac4 <_malloc_r+0x504>
   11984:	01400693          	li	a3,20
   11988:	32e6e463          	bltu	a3,a4,11cb0 <_malloc_r+0x6f0>
   1198c:	05c70613          	add	a2,a4,92
   11990:	05b70693          	add	a3,a4,91
   11994:	00361613          	sll	a2,a2,0x3
   11998:	00c98633          	add	a2,s3,a2
   1199c:	00062703          	lw	a4,0(a2)
   119a0:	ff860613          	add	a2,a2,-8
   119a4:	00e61863          	bne	a2,a4,119b4 <_malloc_r+0x3f4>
   119a8:	2940006f          	j	11c3c <_malloc_r+0x67c>
   119ac:	00872703          	lw	a4,8(a4)
   119b0:	00e60863          	beq	a2,a4,119c0 <_malloc_r+0x400>
   119b4:	00472683          	lw	a3,4(a4)
   119b8:	ffc6f693          	and	a3,a3,-4
   119bc:	fed7e8e3          	bltu	a5,a3,119ac <_malloc_r+0x3ec>
   119c0:	00c72603          	lw	a2,12(a4)
   119c4:	00c42623          	sw	a2,12(s0)
   119c8:	00e42423          	sw	a4,8(s0)
   119cc:	00862423          	sw	s0,8(a2)
   119d0:	00872623          	sw	s0,12(a4)
   119d4:	d85ff06f          	j	11758 <_malloc_r+0x198>
   119d8:	01400713          	li	a4,20
   119dc:	10f77863          	bgeu	a4,a5,11aec <_malloc_r+0x52c>
   119e0:	05400713          	li	a4,84
   119e4:	2ef76463          	bltu	a4,a5,11ccc <_malloc_r+0x70c>
   119e8:	00c4d793          	srl	a5,s1,0xc
   119ec:	06f78593          	add	a1,a5,111
   119f0:	06e78813          	add	a6,a5,110
   119f4:	00359613          	sll	a2,a1,0x3
   119f8:	ca9ff06f          	j	116a0 <_malloc_r+0xe0>
   119fc:	001e0e13          	add	t3,t3,1
   11a00:	003e7793          	and	a5,t3,3
   11a04:	00850513          	add	a0,a0,8
   11a08:	10078063          	beqz	a5,11b08 <_malloc_r+0x548>
   11a0c:	00c52783          	lw	a5,12(a0)
   11a10:	d9dff06f          	j	117ac <_malloc_r+0x1ec>
   11a14:	00842603          	lw	a2,8(s0)
   11a18:	0014e593          	or	a1,s1,1
   11a1c:	00b42223          	sw	a1,4(s0)
   11a20:	00f62623          	sw	a5,12(a2)
   11a24:	00c7a423          	sw	a2,8(a5)
   11a28:	009404b3          	add	s1,s0,s1
   11a2c:	0099aa23          	sw	s1,20(s3)
   11a30:	0099a823          	sw	s1,16(s3)
   11a34:	0016e793          	or	a5,a3,1
   11a38:	0114a623          	sw	a7,12(s1)
   11a3c:	0114a423          	sw	a7,8(s1)
   11a40:	00f4a223          	sw	a5,4(s1)
   11a44:	00e40733          	add	a4,s0,a4
   11a48:	00090513          	mv	a0,s2
   11a4c:	00d72023          	sw	a3,0(a4)
   11a50:	340000ef          	jal	11d90 <__malloc_unlock>
   11a54:	00840513          	add	a0,s0,8
   11a58:	bf5ff06f          	j	1164c <_malloc_r+0x8c>
   11a5c:	00f407b3          	add	a5,s0,a5
   11a60:	0047a703          	lw	a4,4(a5)
   11a64:	00090513          	mv	a0,s2
   11a68:	00176713          	or	a4,a4,1
   11a6c:	00e7a223          	sw	a4,4(a5)
   11a70:	320000ef          	jal	11d90 <__malloc_unlock>
   11a74:	00840513          	add	a0,s0,8
   11a78:	bd5ff06f          	j	1164c <_malloc_r+0x8c>
   11a7c:	0034d593          	srl	a1,s1,0x3
   11a80:	00848793          	add	a5,s1,8
   11a84:	b7dff06f          	j	11600 <_malloc_r+0x40>
   11a88:	0014e693          	or	a3,s1,1
   11a8c:	00d42223          	sw	a3,4(s0)
   11a90:	009404b3          	add	s1,s0,s1
   11a94:	0099aa23          	sw	s1,20(s3)
   11a98:	0099a823          	sw	s1,16(s3)
   11a9c:	00176693          	or	a3,a4,1
   11aa0:	0114a623          	sw	a7,12(s1)
   11aa4:	0114a423          	sw	a7,8(s1)
   11aa8:	00d4a223          	sw	a3,4(s1)
   11aac:	00f407b3          	add	a5,s0,a5
   11ab0:	00090513          	mv	a0,s2
   11ab4:	00e7a023          	sw	a4,0(a5)
   11ab8:	2d8000ef          	jal	11d90 <__malloc_unlock>
   11abc:	00840513          	add	a0,s0,8
   11ac0:	b8dff06f          	j	1164c <_malloc_r+0x8c>
   11ac4:	0067d713          	srl	a4,a5,0x6
   11ac8:	03970613          	add	a2,a4,57
   11acc:	03870693          	add	a3,a4,56
   11ad0:	00361613          	sll	a2,a2,0x3
   11ad4:	ec5ff06f          	j	11998 <_malloc_r+0x3d8>
   11ad8:	07340c63          	beq	s0,s3,11b50 <_malloc_r+0x590>
   11adc:	0089a403          	lw	s0,8(s3)
   11ae0:	00812c03          	lw	s8,8(sp)
   11ae4:	00442783          	lw	a5,4(s0)
   11ae8:	e09ff06f          	j	118f0 <_malloc_r+0x330>
   11aec:	05c78593          	add	a1,a5,92
   11af0:	05b78813          	add	a6,a5,91
   11af4:	00359613          	sll	a2,a1,0x3
   11af8:	ba9ff06f          	j	116a0 <_malloc_r+0xe0>
   11afc:	00832783          	lw	a5,8(t1)
   11b00:	fff58593          	add	a1,a1,-1
   11b04:	26679e63          	bne	a5,t1,11d80 <_malloc_r+0x7c0>
   11b08:	0035f793          	and	a5,a1,3
   11b0c:	ff830313          	add	t1,t1,-8
   11b10:	fe0796e3          	bnez	a5,11afc <_malloc_r+0x53c>
   11b14:	0049a703          	lw	a4,4(s3)
   11b18:	fff64793          	not	a5,a2
   11b1c:	00e7f7b3          	and	a5,a5,a4
   11b20:	00f9a223          	sw	a5,4(s3)
   11b24:	00161613          	sll	a2,a2,0x1
   11b28:	cec7e8e3          	bltu	a5,a2,11818 <_malloc_r+0x258>
   11b2c:	ce0606e3          	beqz	a2,11818 <_malloc_r+0x258>
   11b30:	00f67733          	and	a4,a2,a5
   11b34:	00071a63          	bnez	a4,11b48 <_malloc_r+0x588>
   11b38:	00161613          	sll	a2,a2,0x1
   11b3c:	00f67733          	and	a4,a2,a5
   11b40:	004e0e13          	add	t3,t3,4
   11b44:	fe070ae3          	beqz	a4,11b38 <_malloc_r+0x578>
   11b48:	000e0593          	mv	a1,t3
   11b4c:	c4dff06f          	j	11798 <_malloc_r+0x1d8>
   11b50:	27018c13          	add	s8,gp,624 # 23c40 <__malloc_current_mallinfo>
   11b54:	000c2703          	lw	a4,0(s8)
   11b58:	00ea8733          	add	a4,s5,a4
   11b5c:	00ec2023          	sw	a4,0(s8)
   11b60:	000ca683          	lw	a3,0(s9)
   11b64:	fff00793          	li	a5,-1
   11b68:	18f68663          	beq	a3,a5,11cf4 <_malloc_r+0x734>
   11b6c:	414b87b3          	sub	a5,s7,s4
   11b70:	00e787b3          	add	a5,a5,a4
   11b74:	00fc2023          	sw	a5,0(s8)
   11b78:	007bfc93          	and	s9,s7,7
   11b7c:	0c0c8c63          	beqz	s9,11c54 <_malloc_r+0x694>
   11b80:	419b8bb3          	sub	s7,s7,s9
   11b84:	000017b7          	lui	a5,0x1
   11b88:	00878793          	add	a5,a5,8 # 1008 <exit-0xf08c>
   11b8c:	008b8b93          	add	s7,s7,8
   11b90:	419785b3          	sub	a1,a5,s9
   11b94:	015b8ab3          	add	s5,s7,s5
   11b98:	415585b3          	sub	a1,a1,s5
   11b9c:	01459593          	sll	a1,a1,0x14
   11ba0:	0145da13          	srl	s4,a1,0x14
   11ba4:	000a0593          	mv	a1,s4
   11ba8:	00090513          	mv	a0,s2
   11bac:	728060ef          	jal	182d4 <_sbrk_r>
   11bb0:	fff00793          	li	a5,-1
   11bb4:	18f50063          	beq	a0,a5,11d34 <_malloc_r+0x774>
   11bb8:	41750533          	sub	a0,a0,s7
   11bbc:	01450ab3          	add	s5,a0,s4
   11bc0:	000c2703          	lw	a4,0(s8)
   11bc4:	0179a423          	sw	s7,8(s3)
   11bc8:	001ae793          	or	a5,s5,1
   11bcc:	00ea05b3          	add	a1,s4,a4
   11bd0:	00bc2023          	sw	a1,0(s8)
   11bd4:	00fba223          	sw	a5,4(s7)
   11bd8:	cf3408e3          	beq	s0,s3,118c8 <_malloc_r+0x308>
   11bdc:	00f00693          	li	a3,15
   11be0:	0b66f063          	bgeu	a3,s6,11c80 <_malloc_r+0x6c0>
   11be4:	00442703          	lw	a4,4(s0)
   11be8:	ff4b0793          	add	a5,s6,-12
   11bec:	ff87f793          	and	a5,a5,-8
   11bf0:	00177713          	and	a4,a4,1
   11bf4:	00f76733          	or	a4,a4,a5
   11bf8:	00e42223          	sw	a4,4(s0)
   11bfc:	00500613          	li	a2,5
   11c00:	00f40733          	add	a4,s0,a5
   11c04:	00c72223          	sw	a2,4(a4)
   11c08:	00c72423          	sw	a2,8(a4)
   11c0c:	00f6e663          	bltu	a3,a5,11c18 <_malloc_r+0x658>
   11c10:	004ba783          	lw	a5,4(s7)
   11c14:	cb5ff06f          	j	118c8 <_malloc_r+0x308>
   11c18:	00840593          	add	a1,s0,8
   11c1c:	00090513          	mv	a0,s2
   11c20:	e9cff0ef          	jal	112bc <_free_r>
   11c24:	0089ab83          	lw	s7,8(s3)
   11c28:	000c2583          	lw	a1,0(s8)
   11c2c:	004ba783          	lw	a5,4(s7)
   11c30:	c99ff06f          	j	118c8 <_malloc_r+0x308>
   11c34:	010a8a93          	add	s5,s5,16
   11c38:	c41ff06f          	j	11878 <_malloc_r+0x2b8>
   11c3c:	4026d693          	sra	a3,a3,0x2
   11c40:	00100793          	li	a5,1
   11c44:	00d797b3          	sll	a5,a5,a3
   11c48:	00f56533          	or	a0,a0,a5
   11c4c:	00a9a223          	sw	a0,4(s3)
   11c50:	d75ff06f          	j	119c4 <_malloc_r+0x404>
   11c54:	015b85b3          	add	a1,s7,s5
   11c58:	40b005b3          	neg	a1,a1
   11c5c:	01459593          	sll	a1,a1,0x14
   11c60:	0145da13          	srl	s4,a1,0x14
   11c64:	000a0593          	mv	a1,s4
   11c68:	00090513          	mv	a0,s2
   11c6c:	668060ef          	jal	182d4 <_sbrk_r>
   11c70:	fff00793          	li	a5,-1
   11c74:	f4f512e3          	bne	a0,a5,11bb8 <_malloc_r+0x5f8>
   11c78:	00000a13          	li	s4,0
   11c7c:	f45ff06f          	j	11bc0 <_malloc_r+0x600>
   11c80:	00812c03          	lw	s8,8(sp)
   11c84:	00100793          	li	a5,1
   11c88:	00fba223          	sw	a5,4(s7)
   11c8c:	00090513          	mv	a0,s2
   11c90:	100000ef          	jal	11d90 <__malloc_unlock>
   11c94:	00000513          	li	a0,0
   11c98:	01812a03          	lw	s4,24(sp)
   11c9c:	01412a83          	lw	s5,20(sp)
   11ca0:	01012b03          	lw	s6,16(sp)
   11ca4:	00c12b83          	lw	s7,12(sp)
   11ca8:	00412c83          	lw	s9,4(sp)
   11cac:	9a1ff06f          	j	1164c <_malloc_r+0x8c>
   11cb0:	05400693          	li	a3,84
   11cb4:	04e6e463          	bltu	a3,a4,11cfc <_malloc_r+0x73c>
   11cb8:	00c7d713          	srl	a4,a5,0xc
   11cbc:	06f70613          	add	a2,a4,111
   11cc0:	06e70693          	add	a3,a4,110
   11cc4:	00361613          	sll	a2,a2,0x3
   11cc8:	cd1ff06f          	j	11998 <_malloc_r+0x3d8>
   11ccc:	15400713          	li	a4,340
   11cd0:	04f76463          	bltu	a4,a5,11d18 <_malloc_r+0x758>
   11cd4:	00f4d793          	srl	a5,s1,0xf
   11cd8:	07878593          	add	a1,a5,120
   11cdc:	07778813          	add	a6,a5,119
   11ce0:	00359613          	sll	a2,a1,0x3
   11ce4:	9bdff06f          	j	116a0 <_malloc_r+0xe0>
   11ce8:	0089a403          	lw	s0,8(s3)
   11cec:	00442783          	lw	a5,4(s0)
   11cf0:	c01ff06f          	j	118f0 <_malloc_r+0x330>
   11cf4:	017ca023          	sw	s7,0(s9)
   11cf8:	e81ff06f          	j	11b78 <_malloc_r+0x5b8>
   11cfc:	15400693          	li	a3,340
   11d00:	04e6e463          	bltu	a3,a4,11d48 <_malloc_r+0x788>
   11d04:	00f7d713          	srl	a4,a5,0xf
   11d08:	07870613          	add	a2,a4,120
   11d0c:	07770693          	add	a3,a4,119
   11d10:	00361613          	sll	a2,a2,0x3
   11d14:	c85ff06f          	j	11998 <_malloc_r+0x3d8>
   11d18:	55400713          	li	a4,1364
   11d1c:	04f76463          	bltu	a4,a5,11d64 <_malloc_r+0x7a4>
   11d20:	0124d793          	srl	a5,s1,0x12
   11d24:	07d78593          	add	a1,a5,125
   11d28:	07c78813          	add	a6,a5,124
   11d2c:	00359613          	sll	a2,a1,0x3
   11d30:	971ff06f          	j	116a0 <_malloc_r+0xe0>
   11d34:	ff8c8c93          	add	s9,s9,-8
   11d38:	019a8ab3          	add	s5,s5,s9
   11d3c:	417a8ab3          	sub	s5,s5,s7
   11d40:	00000a13          	li	s4,0
   11d44:	e7dff06f          	j	11bc0 <_malloc_r+0x600>
   11d48:	55400693          	li	a3,1364
   11d4c:	02e6e463          	bltu	a3,a4,11d74 <_malloc_r+0x7b4>
   11d50:	0127d713          	srl	a4,a5,0x12
   11d54:	07d70613          	add	a2,a4,125
   11d58:	07c70693          	add	a3,a4,124
   11d5c:	00361613          	sll	a2,a2,0x3
   11d60:	c39ff06f          	j	11998 <_malloc_r+0x3d8>
   11d64:	3f800613          	li	a2,1016
   11d68:	07f00593          	li	a1,127
   11d6c:	07e00813          	li	a6,126
   11d70:	931ff06f          	j	116a0 <_malloc_r+0xe0>
   11d74:	3f800613          	li	a2,1016
   11d78:	07e00693          	li	a3,126
   11d7c:	c1dff06f          	j	11998 <_malloc_r+0x3d8>
   11d80:	0049a783          	lw	a5,4(s3)
   11d84:	da1ff06f          	j	11b24 <_malloc_r+0x564>

00011d88 <__malloc_lock>:
   11d88:	f6418513          	add	a0,gp,-156 # 23934 <__lock___malloc_recursive_mutex>
   11d8c:	8ccff06f          	j	10e58 <__retarget_lock_acquire_recursive>

00011d90 <__malloc_unlock>:
   11d90:	f6418513          	add	a0,gp,-156 # 23934 <__lock___malloc_recursive_mutex>
   11d94:	8dcff06f          	j	10e70 <__retarget_lock_release_recursive>

00011d98 <_vfprintf_r>:
   11d98:	e7010113          	add	sp,sp,-400
   11d9c:	18112623          	sw	ra,396(sp)
   11da0:	00b12423          	sw	a1,8(sp)
   11da4:	00c12623          	sw	a2,12(sp)
   11da8:	00d12a23          	sw	a3,20(sp)
   11dac:	17312e23          	sw	s3,380(sp)
   11db0:	18812423          	sw	s0,392(sp)
   11db4:	00050993          	mv	s3,a0
   11db8:	50c060ef          	jal	182c4 <_localeconv_r>
   11dbc:	00052783          	lw	a5,0(a0)
   11dc0:	00078513          	mv	a0,a5
   11dc4:	02f12a23          	sw	a5,52(sp)
   11dc8:	00d060ef          	jal	185d4 <strlen>
   11dcc:	00050713          	mv	a4,a0
   11dd0:	00800613          	li	a2,8
   11dd4:	00000593          	li	a1,0
   11dd8:	09010513          	add	a0,sp,144
   11ddc:	02e12823          	sw	a4,48(sp)
   11de0:	894ff0ef          	jal	10e74 <memset>
   11de4:	00c12783          	lw	a5,12(sp)
   11de8:	00098863          	beqz	s3,11df8 <_vfprintf_r+0x60>
   11dec:	0349a703          	lw	a4,52(s3)
   11df0:	00071463          	bnez	a4,11df8 <_vfprintf_r+0x60>
   11df4:	2990106f          	j	1388c <_vfprintf_r+0x1af4>
   11df8:	00812703          	lw	a4,8(sp)
   11dfc:	06472683          	lw	a3,100(a4)
   11e00:	00c71703          	lh	a4,12(a4)
   11e04:	0016f693          	and	a3,a3,1
   11e08:	00069863          	bnez	a3,11e18 <_vfprintf_r+0x80>
   11e0c:	20077693          	and	a3,a4,512
   11e10:	00069463          	bnez	a3,11e18 <_vfprintf_r+0x80>
   11e14:	3e80106f          	j	131fc <_vfprintf_r+0x1464>
   11e18:	01271693          	sll	a3,a4,0x12
   11e1c:	0206c863          	bltz	a3,11e4c <_vfprintf_r+0xb4>
   11e20:	00812503          	lw	a0,8(sp)
   11e24:	000025b7          	lui	a1,0x2
   11e28:	ffffe637          	lui	a2,0xffffe
   11e2c:	06452683          	lw	a3,100(a0)
   11e30:	00b76733          	or	a4,a4,a1
   11e34:	fff60613          	add	a2,a2,-1 # ffffdfff <__BSS_END__+0xfffda0ef>
   11e38:	01071713          	sll	a4,a4,0x10
   11e3c:	41075713          	sra	a4,a4,0x10
   11e40:	00c6f6b3          	and	a3,a3,a2
   11e44:	00e51623          	sh	a4,12(a0)
   11e48:	06d52223          	sw	a3,100(a0)
   11e4c:	00877693          	and	a3,a4,8
   11e50:	28068e63          	beqz	a3,120ec <_vfprintf_r+0x354>
   11e54:	00812683          	lw	a3,8(sp)
   11e58:	0106a683          	lw	a3,16(a3)
   11e5c:	28068863          	beqz	a3,120ec <_vfprintf_r+0x354>
   11e60:	01a77693          	and	a3,a4,26
   11e64:	00a00613          	li	a2,10
   11e68:	2ac68a63          	beq	a3,a2,1211c <_vfprintf_r+0x384>
   11e6c:	0ac10713          	add	a4,sp,172
   11e70:	17512a23          	sw	s5,372(sp)
   11e74:	17812423          	sw	s8,360(sp)
   11e78:	15b12e23          	sw	s11,348(sp)
   11e7c:	18912223          	sw	s1,388(sp)
   11e80:	19212023          	sw	s2,384(sp)
   11e84:	17412c23          	sw	s4,376(sp)
   11e88:	17612823          	sw	s6,368(sp)
   11e8c:	17712623          	sw	s7,364(sp)
   11e90:	17912223          	sw	s9,356(sp)
   11e94:	17a12023          	sw	s10,352(sp)
   11e98:	0ae12023          	sw	a4,160(sp)
   11e9c:	0a012423          	sw	zero,168(sp)
   11ea0:	0a012223          	sw	zero,164(sp)
   11ea4:	00012c23          	sw	zero,24(sp)
   11ea8:	02012423          	sw	zero,40(sp)
   11eac:	02012623          	sw	zero,44(sp)
   11eb0:	00070413          	mv	s0,a4
   11eb4:	02012c23          	sw	zero,56(sp)
   11eb8:	04012023          	sw	zero,64(sp)
   11ebc:	02012e23          	sw	zero,60(sp)
   11ec0:	04012623          	sw	zero,76(sp)
   11ec4:	04012423          	sw	zero,72(sp)
   11ec8:	00012623          	sw	zero,12(sp)
   11ecc:	d3818a93          	add	s5,gp,-712 # 23708 <__global_locale>
   11ed0:	02500d93          	li	s11,37
   11ed4:	00078c13          	mv	s8,a5
   11ed8:	000c0913          	mv	s2,s8
   11edc:	0e4aa483          	lw	s1,228(s5)
   11ee0:	3c4060ef          	jal	182a4 <__locale_mb_cur_max>
   11ee4:	00050693          	mv	a3,a0
   11ee8:	09010713          	add	a4,sp,144
   11eec:	00090613          	mv	a2,s2
   11ef0:	08010593          	add	a1,sp,128
   11ef4:	00098513          	mv	a0,s3
   11ef8:	000480e7          	jalr	s1
   11efc:	2c050a63          	beqz	a0,121d0 <_vfprintf_r+0x438>
   11f00:	2a054a63          	bltz	a0,121b4 <_vfprintf_r+0x41c>
   11f04:	08012783          	lw	a5,128(sp)
   11f08:	01b78663          	beq	a5,s11,11f14 <_vfprintf_r+0x17c>
   11f0c:	00a90933          	add	s2,s2,a0
   11f10:	fcdff06f          	j	11edc <_vfprintf_r+0x144>
   11f14:	00050493          	mv	s1,a0
   11f18:	41890cb3          	sub	s9,s2,s8
   11f1c:	2d891063          	bne	s2,s8,121dc <_vfprintf_r+0x444>
   11f20:	fff00313          	li	t1,-1
   11f24:	00000e93          	li	t4,0
   11f28:	00194e03          	lbu	t3,1(s2)
   11f2c:	06010ba3          	sb	zero,119(sp)
   11f30:	00190913          	add	s2,s2,1
   11f34:	00000b93          	li	s7,0
   11f38:	05a00493          	li	s1,90
   11f3c:	000e8a13          	mv	s4,t4
   11f40:	00030b13          	mv	s6,t1
   11f44:	00190913          	add	s2,s2,1
   11f48:	fe0e0793          	add	a5,t3,-32
   11f4c:	04f4ea63          	bltu	s1,a5,11fa0 <_vfprintf_r+0x208>
   11f50:	00010717          	auipc	a4,0x10
   11f54:	ec070713          	add	a4,a4,-320 # 21e10 <__clzsi2+0x39c>
   11f58:	00279793          	sll	a5,a5,0x2
   11f5c:	00e787b3          	add	a5,a5,a4
   11f60:	0007a783          	lw	a5,0(a5)
   11f64:	00e787b3          	add	a5,a5,a4
   11f68:	00078067          	jr	a5
   11f6c:	00000b93          	li	s7,0
   11f70:	fd0e0713          	add	a4,t3,-48
   11f74:	00900693          	li	a3,9
   11f78:	00094e03          	lbu	t3,0(s2)
   11f7c:	002b9793          	sll	a5,s7,0x2
   11f80:	017787b3          	add	a5,a5,s7
   11f84:	00179793          	sll	a5,a5,0x1
   11f88:	00f70bb3          	add	s7,a4,a5
   11f8c:	fd0e0713          	add	a4,t3,-48
   11f90:	00190913          	add	s2,s2,1
   11f94:	fee6f2e3          	bgeu	a3,a4,11f78 <_vfprintf_r+0x1e0>
   11f98:	fe0e0793          	add	a5,t3,-32
   11f9c:	faf4fae3          	bgeu	s1,a5,11f50 <_vfprintf_r+0x1b8>
   11fa0:	000a0e93          	mv	t4,s4
   11fa4:	260e0a63          	beqz	t3,12218 <_vfprintf_r+0x480>
   11fa8:	0fc10623          	sb	t3,236(sp)
   11fac:	06010ba3          	sb	zero,119(sp)
   11fb0:	00100c93          	li	s9,1
   11fb4:	00000613          	li	a2,0
   11fb8:	00012823          	sw	zero,16(sp)
   11fbc:	00100d13          	li	s10,1
   11fc0:	00000313          	li	t1,0
   11fc4:	02012223          	sw	zero,36(sp)
   11fc8:	02012023          	sw	zero,32(sp)
   11fcc:	00000a13          	li	s4,0
   11fd0:	0ec10c13          	add	s8,sp,236
   11fd4:	002ef293          	and	t0,t4,2
   11fd8:	00028463          	beqz	t0,11fe0 <_vfprintf_r+0x248>
   11fdc:	002c8c93          	add	s9,s9,2
   11fe0:	084eff93          	and	t6,t4,132
   11fe4:	0a812483          	lw	s1,168(sp)
   11fe8:	000f9663          	bnez	t6,11ff4 <_vfprintf_r+0x25c>
   11fec:	419b8733          	sub	a4,s7,s9
   11ff0:	40e04663          	bgtz	a4,123fc <_vfprintf_r+0x664>
   11ff4:	02060a63          	beqz	a2,12028 <_vfprintf_r+0x290>
   11ff8:	0a412703          	lw	a4,164(sp)
   11ffc:	07710613          	add	a2,sp,119
   12000:	00148493          	add	s1,s1,1
   12004:	00170713          	add	a4,a4,1
   12008:	00100793          	li	a5,1
   1200c:	00c42023          	sw	a2,0(s0)
   12010:	00f42223          	sw	a5,4(s0)
   12014:	0a912423          	sw	s1,168(sp)
   12018:	0ae12223          	sw	a4,164(sp)
   1201c:	00700613          	li	a2,7
   12020:	00840413          	add	s0,s0,8
   12024:	4ce64863          	blt	a2,a4,124f4 <_vfprintf_r+0x75c>
   12028:	02028a63          	beqz	t0,1205c <_vfprintf_r+0x2c4>
   1202c:	0a412703          	lw	a4,164(sp)
   12030:	07810613          	add	a2,sp,120
   12034:	00c42023          	sw	a2,0(s0)
   12038:	00248493          	add	s1,s1,2
   1203c:	00200613          	li	a2,2
   12040:	00170713          	add	a4,a4,1
   12044:	00c42223          	sw	a2,4(s0)
   12048:	0a912423          	sw	s1,168(sp)
   1204c:	0ae12223          	sw	a4,164(sp)
   12050:	00700613          	li	a2,7
   12054:	00840413          	add	s0,s0,8
   12058:	5ce644e3          	blt	a2,a4,12e20 <_vfprintf_r+0x1088>
   1205c:	08000713          	li	a4,128
   12060:	3aef80e3          	beq	t6,a4,12c00 <_vfprintf_r+0xe68>
   12064:	41a30b33          	sub	s6,t1,s10
   12068:	4b604ae3          	bgtz	s6,12d1c <_vfprintf_r+0xf84>
   1206c:	100ef713          	and	a4,t4,256
   12070:	1a0710e3          	bnez	a4,12a10 <_vfprintf_r+0xc78>
   12074:	0a412783          	lw	a5,164(sp)
   12078:	01a484b3          	add	s1,s1,s10
   1207c:	01842023          	sw	s8,0(s0)
   12080:	00178793          	add	a5,a5,1
   12084:	01a42223          	sw	s10,4(s0)
   12088:	0a912423          	sw	s1,168(sp)
   1208c:	0af12223          	sw	a5,164(sp)
   12090:	00700713          	li	a4,7
   12094:	58f74c63          	blt	a4,a5,1262c <_vfprintf_r+0x894>
   12098:	00840413          	add	s0,s0,8
   1209c:	004eff13          	and	t5,t4,4
   120a0:	000f0663          	beqz	t5,120ac <_vfprintf_r+0x314>
   120a4:	419b8d33          	sub	s10,s7,s9
   120a8:	5ba04ce3          	bgtz	s10,12e60 <_vfprintf_r+0x10c8>
   120ac:	000b8e93          	mv	t4,s7
   120b0:	019bd463          	bge	s7,s9,120b8 <_vfprintf_r+0x320>
   120b4:	000c8e93          	mv	t4,s9
   120b8:	00c12783          	lw	a5,12(sp)
   120bc:	01d787b3          	add	a5,a5,t4
   120c0:	00f12623          	sw	a5,12(sp)
   120c4:	18049663          	bnez	s1,12250 <_vfprintf_r+0x4b8>
   120c8:	01012783          	lw	a5,16(sp)
   120cc:	0a012223          	sw	zero,164(sp)
   120d0:	00078863          	beqz	a5,120e0 <_vfprintf_r+0x348>
   120d4:	01012583          	lw	a1,16(sp)
   120d8:	00098513          	mv	a0,s3
   120dc:	9e0ff0ef          	jal	112bc <_free_r>
   120e0:	0ac10413          	add	s0,sp,172
   120e4:	00090c13          	mv	s8,s2
   120e8:	df1ff06f          	j	11ed8 <_vfprintf_r+0x140>
   120ec:	00812403          	lw	s0,8(sp)
   120f0:	00098513          	mv	a0,s3
   120f4:	00f12623          	sw	a5,12(sp)
   120f8:	00040593          	mv	a1,s0
   120fc:	6cd040ef          	jal	16fc8 <__swsetup_r>
   12100:	00050463          	beqz	a0,12108 <_vfprintf_r+0x370>
   12104:	5600206f          	j	14664 <_vfprintf_r+0x28cc>
   12108:	00c41703          	lh	a4,12(s0)
   1210c:	00a00613          	li	a2,10
   12110:	00c12783          	lw	a5,12(sp)
   12114:	01a77693          	and	a3,a4,26
   12118:	d4c69ae3          	bne	a3,a2,11e6c <_vfprintf_r+0xd4>
   1211c:	00812603          	lw	a2,8(sp)
   12120:	00e61683          	lh	a3,14(a2)
   12124:	d406c4e3          	bltz	a3,11e6c <_vfprintf_r+0xd4>
   12128:	06462683          	lw	a3,100(a2)
   1212c:	0016f693          	and	a3,a3,1
   12130:	00069863          	bnez	a3,12140 <_vfprintf_r+0x3a8>
   12134:	20077713          	and	a4,a4,512
   12138:	00071463          	bnez	a4,12140 <_vfprintf_r+0x3a8>
   1213c:	53d0106f          	j	13e78 <_vfprintf_r+0x20e0>
   12140:	01412683          	lw	a3,20(sp)
   12144:	00812583          	lw	a1,8(sp)
   12148:	00098513          	mv	a0,s3
   1214c:	00078613          	mv	a2,a5
   12150:	0f9020ef          	jal	14a48 <__sbprintf>
   12154:	18c12083          	lw	ra,396(sp)
   12158:	18812403          	lw	s0,392(sp)
   1215c:	00a12623          	sw	a0,12(sp)
   12160:	00c12503          	lw	a0,12(sp)
   12164:	17c12983          	lw	s3,380(sp)
   12168:	19010113          	add	sp,sp,400
   1216c:	00008067          	ret
   12170:	00098513          	mv	a0,s3
   12174:	150060ef          	jal	182c4 <_localeconv_r>
   12178:	00452783          	lw	a5,4(a0)
   1217c:	00078513          	mv	a0,a5
   12180:	04f12423          	sw	a5,72(sp)
   12184:	450060ef          	jal	185d4 <strlen>
   12188:	00050793          	mv	a5,a0
   1218c:	00098513          	mv	a0,s3
   12190:	00078c93          	mv	s9,a5
   12194:	04f12623          	sw	a5,76(sp)
   12198:	12c060ef          	jal	182c4 <_localeconv_r>
   1219c:	00852703          	lw	a4,8(a0)
   121a0:	02e12e23          	sw	a4,60(sp)
   121a4:	000c8463          	beqz	s9,121ac <_vfprintf_r+0x414>
   121a8:	1ec0106f          	j	13394 <_vfprintf_r+0x15fc>
   121ac:	00094e03          	lbu	t3,0(s2)
   121b0:	d95ff06f          	j	11f44 <_vfprintf_r+0x1ac>
   121b4:	00800613          	li	a2,8
   121b8:	00000593          	li	a1,0
   121bc:	09010513          	add	a0,sp,144
   121c0:	cb5fe0ef          	jal	10e74 <memset>
   121c4:	00100513          	li	a0,1
   121c8:	00a90933          	add	s2,s2,a0
   121cc:	d11ff06f          	j	11edc <_vfprintf_r+0x144>
   121d0:	00050493          	mv	s1,a0
   121d4:	41890cb3          	sub	s9,s2,s8
   121d8:	05890063          	beq	s2,s8,12218 <_vfprintf_r+0x480>
   121dc:	0a812683          	lw	a3,168(sp)
   121e0:	0a412703          	lw	a4,164(sp)
   121e4:	01842023          	sw	s8,0(s0)
   121e8:	019686b3          	add	a3,a3,s9
   121ec:	00170713          	add	a4,a4,1
   121f0:	01942223          	sw	s9,4(s0)
   121f4:	0ad12423          	sw	a3,168(sp)
   121f8:	0ae12223          	sw	a4,164(sp)
   121fc:	00700693          	li	a3,7
   12200:	00840413          	add	s0,s0,8
   12204:	02e6c863          	blt	a3,a4,12234 <_vfprintf_r+0x49c>
   12208:	00c12783          	lw	a5,12(sp)
   1220c:	019787b3          	add	a5,a5,s9
   12210:	00f12623          	sw	a5,12(sp)
   12214:	d00496e3          	bnez	s1,11f20 <_vfprintf_r+0x188>
   12218:	0a812783          	lw	a5,168(sp)
   1221c:	00078463          	beqz	a5,12224 <_vfprintf_r+0x48c>
   12220:	4090106f          	j	13e28 <_vfprintf_r+0x2090>
   12224:	00812783          	lw	a5,8(sp)
   12228:	0a012223          	sw	zero,164(sp)
   1222c:	00c79783          	lh	a5,12(a5)
   12230:	0500006f          	j	12280 <_vfprintf_r+0x4e8>
   12234:	00812583          	lw	a1,8(sp)
   12238:	0a010613          	add	a2,sp,160
   1223c:	00098513          	mv	a0,s3
   12240:	225020ef          	jal	14c64 <__sprint_r>
   12244:	02051a63          	bnez	a0,12278 <_vfprintf_r+0x4e0>
   12248:	0ac10413          	add	s0,sp,172
   1224c:	fbdff06f          	j	12208 <_vfprintf_r+0x470>
   12250:	00812583          	lw	a1,8(sp)
   12254:	0a010613          	add	a2,sp,160
   12258:	00098513          	mv	a0,s3
   1225c:	209020ef          	jal	14c64 <__sprint_r>
   12260:	e60504e3          	beqz	a0,120c8 <_vfprintf_r+0x330>
   12264:	01012283          	lw	t0,16(sp)
   12268:	00028863          	beqz	t0,12278 <_vfprintf_r+0x4e0>
   1226c:	00028593          	mv	a1,t0
   12270:	00098513          	mv	a0,s3
   12274:	848ff0ef          	jal	112bc <_free_r>
   12278:	00812783          	lw	a5,8(sp)
   1227c:	00c79783          	lh	a5,12(a5)
   12280:	00812703          	lw	a4,8(sp)
   12284:	06472703          	lw	a4,100(a4)
   12288:	00177713          	and	a4,a4,1
   1228c:	3c070463          	beqz	a4,12654 <_vfprintf_r+0x8bc>
   12290:	0407f793          	and	a5,a5,64
   12294:	18412483          	lw	s1,388(sp)
   12298:	18012903          	lw	s2,384(sp)
   1229c:	17812a03          	lw	s4,376(sp)
   122a0:	17412a83          	lw	s5,372(sp)
   122a4:	17012b03          	lw	s6,368(sp)
   122a8:	16c12b83          	lw	s7,364(sp)
   122ac:	16812c03          	lw	s8,360(sp)
   122b0:	16412c83          	lw	s9,356(sp)
   122b4:	16012d03          	lw	s10,352(sp)
   122b8:	15c12d83          	lw	s11,348(sp)
   122bc:	00078463          	beqz	a5,122c4 <_vfprintf_r+0x52c>
   122c0:	3d00206f          	j	14690 <_vfprintf_r+0x28f8>
   122c4:	18c12083          	lw	ra,396(sp)
   122c8:	18812403          	lw	s0,392(sp)
   122cc:	00c12503          	lw	a0,12(sp)
   122d0:	17c12983          	lw	s3,380(sp)
   122d4:	19010113          	add	sp,sp,400
   122d8:	00008067          	ret
   122dc:	008a7713          	and	a4,s4,8
   122e0:	000a0e93          	mv	t4,s4
   122e4:	000b0313          	mv	t1,s6
   122e8:	00070463          	beqz	a4,122f0 <_vfprintf_r+0x558>
   122ec:	0200106f          	j	1330c <_vfprintf_r+0x1574>
   122f0:	01412783          	lw	a5,20(sp)
   122f4:	00778b13          	add	s6,a5,7
   122f8:	ff8b7b13          	and	s6,s6,-8
   122fc:	000b2783          	lw	a5,0(s6)
   12300:	02f12423          	sw	a5,40(sp)
   12304:	004b2783          	lw	a5,4(s6)
   12308:	02f12623          	sw	a5,44(sp)
   1230c:	008b0793          	add	a5,s6,8
   12310:	00f12a23          	sw	a5,20(sp)
   12314:	02c12a03          	lw	s4,44(sp)
   12318:	00011717          	auipc	a4,0x11
   1231c:	58070713          	add	a4,a4,1408 # 23898 <__SDATA_BEGIN__>
   12320:	00072c83          	lw	s9,0(a4)
   12324:	00472d03          	lw	s10,4(a4)
   12328:	02812b03          	lw	s6,40(sp)
   1232c:	001a1493          	sll	s1,s4,0x1
   12330:	0014d493          	srl	s1,s1,0x1
   12334:	000b0513          	mv	a0,s6
   12338:	00048593          	mv	a1,s1
   1233c:	000c8613          	mv	a2,s9
   12340:	000d0693          	mv	a3,s10
   12344:	02612223          	sw	t1,36(sp)
   12348:	03c12023          	sw	t3,32(sp)
   1234c:	01d12823          	sw	t4,16(sp)
   12350:	01c0f0ef          	jal	2136c <__unorddf2>
   12354:	01012e83          	lw	t4,16(sp)
   12358:	02012e03          	lw	t3,32(sp)
   1235c:	02412303          	lw	t1,36(sp)
   12360:	00050463          	beqz	a0,12368 <_vfprintf_r+0x5d0>
   12364:	4080106f          	j	1376c <_vfprintf_r+0x19d4>
   12368:	000b0513          	mv	a0,s6
   1236c:	00048593          	mv	a1,s1
   12370:	000c8613          	mv	a2,s9
   12374:	000d0693          	mv	a3,s10
   12378:	6550d0ef          	jal	201cc <__ledf2>
   1237c:	01012e83          	lw	t4,16(sp)
   12380:	02012e03          	lw	t3,32(sp)
   12384:	02412303          	lw	t1,36(sp)
   12388:	00a04463          	bgtz	a0,12390 <_vfprintf_r+0x5f8>
   1238c:	3e00106f          	j	1376c <_vfprintf_r+0x19d4>
   12390:	000b0513          	mv	a0,s6
   12394:	000a0593          	mv	a1,s4
   12398:	00000613          	li	a2,0
   1239c:	00000693          	li	a3,0
   123a0:	62d0d0ef          	jal	201cc <__ledf2>
   123a4:	01012e83          	lw	t4,16(sp)
   123a8:	02012e03          	lw	t3,32(sp)
   123ac:	00055463          	bgez	a0,123b4 <_vfprintf_r+0x61c>
   123b0:	6650106f          	j	14214 <_vfprintf_r+0x247c>
   123b4:	07714603          	lbu	a2,119(sp)
   123b8:	04700713          	li	a4,71
   123bc:	0000fc17          	auipc	s8,0xf
   123c0:	77cc0c13          	add	s8,s8,1916 # 21b38 <__clzsi2+0xc4>
   123c4:	01c74663          	blt	a4,t3,123d0 <_vfprintf_r+0x638>
   123c8:	0000fc17          	auipc	s8,0xf
   123cc:	76cc0c13          	add	s8,s8,1900 # 21b34 <__clzsi2+0xc0>
   123d0:	00012823          	sw	zero,16(sp)
   123d4:	02012223          	sw	zero,36(sp)
   123d8:	02012023          	sw	zero,32(sp)
   123dc:	f7fefe93          	and	t4,t4,-129
   123e0:	00300c93          	li	s9,3
   123e4:	00300d13          	li	s10,3
   123e8:	00000313          	li	t1,0
   123ec:	00000a13          	li	s4,0
   123f0:	be0602e3          	beqz	a2,11fd4 <_vfprintf_r+0x23c>
   123f4:	001c8c93          	add	s9,s9,1
   123f8:	bddff06f          	j	11fd4 <_vfprintf_r+0x23c>
   123fc:	01000593          	li	a1,16
   12400:	0a412603          	lw	a2,164(sp)
   12404:	00010b17          	auipc	s6,0x10
   12408:	c20b0b13          	add	s6,s6,-992 # 22024 <blanks.1>
   1240c:	0ae5dc63          	bge	a1,a4,124c4 <_vfprintf_r+0x72c>
   12410:	00040793          	mv	a5,s0
   12414:	00048693          	mv	a3,s1
   12418:	01000893          	li	a7,16
   1241c:	000b0493          	mv	s1,s6
   12420:	00700393          	li	t2,7
   12424:	000a0b13          	mv	s6,s4
   12428:	04512223          	sw	t0,68(sp)
   1242c:	05f12823          	sw	t6,80(sp)
   12430:	05d12a23          	sw	t4,84(sp)
   12434:	05c12c23          	sw	t3,88(sp)
   12438:	00070413          	mv	s0,a4
   1243c:	00030a13          	mv	s4,t1
   12440:	00c0006f          	j	1244c <_vfprintf_r+0x6b4>
   12444:	ff040413          	add	s0,s0,-16
   12448:	0488da63          	bge	a7,s0,1249c <_vfprintf_r+0x704>
   1244c:	01068693          	add	a3,a3,16
   12450:	00160613          	add	a2,a2,1
   12454:	0097a023          	sw	s1,0(a5)
   12458:	0117a223          	sw	a7,4(a5)
   1245c:	0ad12423          	sw	a3,168(sp)
   12460:	0ac12223          	sw	a2,164(sp)
   12464:	00878793          	add	a5,a5,8
   12468:	fcc3dee3          	bge	t2,a2,12444 <_vfprintf_r+0x6ac>
   1246c:	00812583          	lw	a1,8(sp)
   12470:	0a010613          	add	a2,sp,160
   12474:	00098513          	mv	a0,s3
   12478:	7ec020ef          	jal	14c64 <__sprint_r>
   1247c:	de0514e3          	bnez	a0,12264 <_vfprintf_r+0x4cc>
   12480:	01000893          	li	a7,16
   12484:	ff040413          	add	s0,s0,-16
   12488:	0a812683          	lw	a3,168(sp)
   1248c:	0a412603          	lw	a2,164(sp)
   12490:	0ac10793          	add	a5,sp,172
   12494:	00700393          	li	t2,7
   12498:	fa88cae3          	blt	a7,s0,1244c <_vfprintf_r+0x6b4>
   1249c:	04412283          	lw	t0,68(sp)
   124a0:	05012f83          	lw	t6,80(sp)
   124a4:	05412e83          	lw	t4,84(sp)
   124a8:	05812e03          	lw	t3,88(sp)
   124ac:	000a0313          	mv	t1,s4
   124b0:	00040713          	mv	a4,s0
   124b4:	000b0a13          	mv	s4,s6
   124b8:	00078413          	mv	s0,a5
   124bc:	00048b13          	mv	s6,s1
   124c0:	00068493          	mv	s1,a3
   124c4:	00e484b3          	add	s1,s1,a4
   124c8:	00160613          	add	a2,a2,1
   124cc:	00e42223          	sw	a4,4(s0)
   124d0:	01642023          	sw	s6,0(s0)
   124d4:	0a912423          	sw	s1,168(sp)
   124d8:	0ac12223          	sw	a2,164(sp)
   124dc:	00700713          	li	a4,7
   124e0:	00c75463          	bge	a4,a2,124e8 <_vfprintf_r+0x750>
   124e4:	2380106f          	j	1371c <_vfprintf_r+0x1984>
   124e8:	07714603          	lbu	a2,119(sp)
   124ec:	00840413          	add	s0,s0,8
   124f0:	b05ff06f          	j	11ff4 <_vfprintf_r+0x25c>
   124f4:	00812583          	lw	a1,8(sp)
   124f8:	0a010613          	add	a2,sp,160
   124fc:	00098513          	mv	a0,s3
   12500:	04612e23          	sw	t1,92(sp)
   12504:	05c12c23          	sw	t3,88(sp)
   12508:	05d12a23          	sw	t4,84(sp)
   1250c:	05f12823          	sw	t6,80(sp)
   12510:	04512223          	sw	t0,68(sp)
   12514:	750020ef          	jal	14c64 <__sprint_r>
   12518:	d40516e3          	bnez	a0,12264 <_vfprintf_r+0x4cc>
   1251c:	0a812483          	lw	s1,168(sp)
   12520:	05c12303          	lw	t1,92(sp)
   12524:	05812e03          	lw	t3,88(sp)
   12528:	05412e83          	lw	t4,84(sp)
   1252c:	05012f83          	lw	t6,80(sp)
   12530:	04412283          	lw	t0,68(sp)
   12534:	0ac10413          	add	s0,sp,172
   12538:	af1ff06f          	j	12028 <_vfprintf_r+0x290>
   1253c:	0a412d03          	lw	s10,164(sp)
   12540:	01812783          	lw	a5,24(sp)
   12544:	00100693          	li	a3,1
   12548:	01842023          	sw	s8,0(s0)
   1254c:	00148493          	add	s1,s1,1
   12550:	001d0d13          	add	s10,s10,1
   12554:	00840b13          	add	s6,s0,8
   12558:	32f6d0e3          	bge	a3,a5,13078 <_vfprintf_r+0x12e0>
   1255c:	00100693          	li	a3,1
   12560:	00d42223          	sw	a3,4(s0)
   12564:	0a912423          	sw	s1,168(sp)
   12568:	0ba12223          	sw	s10,164(sp)
   1256c:	00700693          	li	a3,7
   12570:	01a6d463          	bge	a3,s10,12578 <_vfprintf_r+0x7e0>
   12574:	0680106f          	j	135dc <_vfprintf_r+0x1844>
   12578:	03012783          	lw	a5,48(sp)
   1257c:	03412703          	lw	a4,52(sp)
   12580:	001d0d13          	add	s10,s10,1
   12584:	00f484b3          	add	s1,s1,a5
   12588:	00eb2023          	sw	a4,0(s6)
   1258c:	00fb2223          	sw	a5,4(s6)
   12590:	0a912423          	sw	s1,168(sp)
   12594:	0ba12223          	sw	s10,164(sp)
   12598:	00700693          	li	a3,7
   1259c:	008b0b13          	add	s6,s6,8
   125a0:	01a6d463          	bge	a3,s10,125a8 <_vfprintf_r+0x810>
   125a4:	0680106f          	j	1360c <_vfprintf_r+0x1874>
   125a8:	02812603          	lw	a2,40(sp)
   125ac:	02c12683          	lw	a3,44(sp)
   125b0:	01812783          	lw	a5,24(sp)
   125b4:	00060513          	mv	a0,a2
   125b8:	00068593          	mv	a1,a3
   125bc:	00000613          	li	a2,0
   125c0:	00000693          	li	a3,0
   125c4:	03d12023          	sw	t4,32(sp)
   125c8:	fff78413          	add	s0,a5,-1
   125cc:	2750d0ef          	jal	20040 <__eqdf2>
   125d0:	02012e83          	lw	t4,32(sp)
   125d4:	2e0506e3          	beqz	a0,130c0 <_vfprintf_r+0x1328>
   125d8:	001c0793          	add	a5,s8,1
   125dc:	001d0d13          	add	s10,s10,1
   125e0:	008484b3          	add	s1,s1,s0
   125e4:	00fb2023          	sw	a5,0(s6)
   125e8:	008b2223          	sw	s0,4(s6)
   125ec:	0a912423          	sw	s1,168(sp)
   125f0:	0ba12223          	sw	s10,164(sp)
   125f4:	00700793          	li	a5,7
   125f8:	008b0b13          	add	s6,s6,8
   125fc:	29a7cce3          	blt	a5,s10,13094 <_vfprintf_r+0x12fc>
   12600:	04012703          	lw	a4,64(sp)
   12604:	08810793          	add	a5,sp,136
   12608:	001d0d13          	add	s10,s10,1
   1260c:	009704b3          	add	s1,a4,s1
   12610:	00fb2023          	sw	a5,0(s6)
   12614:	00eb2223          	sw	a4,4(s6)
   12618:	0a912423          	sw	s1,168(sp)
   1261c:	0ba12223          	sw	s10,164(sp)
   12620:	00700793          	li	a5,7
   12624:	008b0413          	add	s0,s6,8
   12628:	a7a7dae3          	bge	a5,s10,1209c <_vfprintf_r+0x304>
   1262c:	00812583          	lw	a1,8(sp)
   12630:	0a010613          	add	a2,sp,160
   12634:	00098513          	mv	a0,s3
   12638:	03d12023          	sw	t4,32(sp)
   1263c:	628020ef          	jal	14c64 <__sprint_r>
   12640:	c20512e3          	bnez	a0,12264 <_vfprintf_r+0x4cc>
   12644:	0a812483          	lw	s1,168(sp)
   12648:	02012e83          	lw	t4,32(sp)
   1264c:	0ac10413          	add	s0,sp,172
   12650:	a4dff06f          	j	1209c <_vfprintf_r+0x304>
   12654:	2007f713          	and	a4,a5,512
   12658:	c2071ce3          	bnez	a4,12290 <_vfprintf_r+0x4f8>
   1265c:	00812403          	lw	s0,8(sp)
   12660:	05842503          	lw	a0,88(s0)
   12664:	80dfe0ef          	jal	10e70 <__retarget_lock_release_recursive>
   12668:	00c41783          	lh	a5,12(s0)
   1266c:	c25ff06f          	j	12290 <_vfprintf_r+0x4f8>
   12670:	00094e03          	lbu	t3,0(s2)
   12674:	020a6a13          	or	s4,s4,32
   12678:	8cdff06f          	j	11f44 <_vfprintf_r+0x1ac>
   1267c:	01412703          	lw	a4,20(sp)
   12680:	04300793          	li	a5,67
   12684:	000a0e93          	mv	t4,s4
   12688:	00470493          	add	s1,a4,4
   1268c:	64fe08e3          	beq	t3,a5,134dc <_vfprintf_r+0x1744>
   12690:	010a7793          	and	a5,s4,16
   12694:	640794e3          	bnez	a5,134dc <_vfprintf_r+0x1744>
   12698:	01412783          	lw	a5,20(sp)
   1269c:	00100c93          	li	s9,1
   126a0:	00100d13          	li	s10,1
   126a4:	0007a783          	lw	a5,0(a5)
   126a8:	0ec10c13          	add	s8,sp,236
   126ac:	0ef10623          	sb	a5,236(sp)
   126b0:	06010ba3          	sb	zero,119(sp)
   126b4:	00912a23          	sw	s1,20(sp)
   126b8:	00000613          	li	a2,0
   126bc:	00012823          	sw	zero,16(sp)
   126c0:	00000313          	li	t1,0
   126c4:	02012223          	sw	zero,36(sp)
   126c8:	02012023          	sw	zero,32(sp)
   126cc:	00000a13          	li	s4,0
   126d0:	905ff06f          	j	11fd4 <_vfprintf_r+0x23c>
   126d4:	01412783          	lw	a5,20(sp)
   126d8:	06010ba3          	sb	zero,119(sp)
   126dc:	000b0313          	mv	t1,s6
   126e0:	0007ac03          	lw	s8,0(a5)
   126e4:	000a0e93          	mv	t4,s4
   126e8:	00478b13          	add	s6,a5,4
   126ec:	5a0c0ce3          	beqz	s8,134a4 <_vfprintf_r+0x170c>
   126f0:	05300713          	li	a4,83
   126f4:	00ee1463          	bne	t3,a4,126fc <_vfprintf_r+0x964>
   126f8:	1d00106f          	j	138c8 <_vfprintf_r+0x1b30>
   126fc:	010a7a13          	and	s4,s4,16
   12700:	000a0463          	beqz	s4,12708 <_vfprintf_r+0x970>
   12704:	1c40106f          	j	138c8 <_vfprintf_r+0x1b30>
   12708:	00035463          	bgez	t1,12710 <_vfprintf_r+0x978>
   1270c:	6d40106f          	j	13de0 <_vfprintf_r+0x2048>
   12710:	00030613          	mv	a2,t1
   12714:	00000593          	li	a1,0
   12718:	000c0513          	mv	a0,s8
   1271c:	03d12023          	sw	t4,32(sp)
   12720:	00612a23          	sw	t1,20(sp)
   12724:	501040ef          	jal	17424 <memchr>
   12728:	00a12823          	sw	a0,16(sp)
   1272c:	01412303          	lw	t1,20(sp)
   12730:	02012e83          	lw	t4,32(sp)
   12734:	00051463          	bnez	a0,1273c <_vfprintf_r+0x9a4>
   12738:	1780206f          	j	148b0 <_vfprintf_r+0x2b18>
   1273c:	01012783          	lw	a5,16(sp)
   12740:	07714603          	lbu	a2,119(sp)
   12744:	01612a23          	sw	s6,20(sp)
   12748:	41878d33          	sub	s10,a5,s8
   1274c:	fffd4813          	not	a6,s10
   12750:	41f85813          	sra	a6,a6,0x1f
   12754:	02012223          	sw	zero,36(sp)
   12758:	02012023          	sw	zero,32(sp)
   1275c:	00012823          	sw	zero,16(sp)
   12760:	010d7cb3          	and	s9,s10,a6
   12764:	00000313          	li	t1,0
   12768:	07300e13          	li	t3,115
   1276c:	860604e3          	beqz	a2,11fd4 <_vfprintf_r+0x23c>
   12770:	c85ff06f          	j	123f4 <_vfprintf_r+0x65c>
   12774:	01412783          	lw	a5,20(sp)
   12778:	0007ab83          	lw	s7,0(a5)
   1277c:	00478793          	add	a5,a5,4
   12780:	2a0bdae3          	bgez	s7,13234 <_vfprintf_r+0x149c>
   12784:	41700bb3          	neg	s7,s7
   12788:	00f12a23          	sw	a5,20(sp)
   1278c:	00094e03          	lbu	t3,0(s2)
   12790:	004a6a13          	or	s4,s4,4
   12794:	fb0ff06f          	j	11f44 <_vfprintf_r+0x1ac>
   12798:	02b00793          	li	a5,43
   1279c:	00094e03          	lbu	t3,0(s2)
   127a0:	06f10ba3          	sb	a5,119(sp)
   127a4:	fa0ff06f          	j	11f44 <_vfprintf_r+0x1ac>
   127a8:	000b0313          	mv	t1,s6
   127ac:	010a6613          	or	a2,s4,16
   127b0:	02067793          	and	a5,a2,32
   127b4:	1c0780e3          	beqz	a5,13174 <_vfprintf_r+0x13dc>
   127b8:	01412783          	lw	a5,20(sp)
   127bc:	00778b13          	add	s6,a5,7
   127c0:	ff8b7b13          	and	s6,s6,-8
   127c4:	000b2d03          	lw	s10,0(s6)
   127c8:	004b2c83          	lw	s9,4(s6)
   127cc:	008b0793          	add	a5,s6,8
   127d0:	00f12a23          	sw	a5,20(sp)
   127d4:	00100793          	li	a5,1
   127d8:	00000713          	li	a4,0
   127dc:	06e10ba3          	sb	a4,119(sp)
   127e0:	34034c63          	bltz	t1,12b38 <_vfprintf_r+0xda0>
   127e4:	019d6733          	or	a4,s10,s9
   127e8:	f7f67e93          	and	t4,a2,-129
   127ec:	34071463          	bnez	a4,12b34 <_vfprintf_r+0xd9c>
   127f0:	3a031a63          	bnez	t1,12ba4 <_vfprintf_r+0xe0c>
   127f4:	5c079ee3          	bnez	a5,135d0 <_vfprintf_r+0x1838>
   127f8:	00167d13          	and	s10,a2,1
   127fc:	15010c13          	add	s8,sp,336
   12800:	2c0d10e3          	bnez	s10,132c0 <_vfprintf_r+0x1528>
   12804:	07714603          	lbu	a2,119(sp)
   12808:	00030c93          	mv	s9,t1
   1280c:	01a35463          	bge	t1,s10,12814 <_vfprintf_r+0xa7c>
   12810:	000d0c93          	mv	s9,s10
   12814:	00012823          	sw	zero,16(sp)
   12818:	02012223          	sw	zero,36(sp)
   1281c:	02012023          	sw	zero,32(sp)
   12820:	00000a13          	li	s4,0
   12824:	fa060863          	beqz	a2,11fd4 <_vfprintf_r+0x23c>
   12828:	bcdff06f          	j	123f4 <_vfprintf_r+0x65c>
   1282c:	00094e03          	lbu	t3,0(s2)
   12830:	080a6a13          	or	s4,s4,128
   12834:	f10ff06f          	j	11f44 <_vfprintf_r+0x1ac>
   12838:	00094e03          	lbu	t3,0(s2)
   1283c:	02a00793          	li	a5,42
   12840:	00190693          	add	a3,s2,1
   12844:	00fe1463          	bne	t3,a5,1284c <_vfprintf_r+0xab4>
   12848:	1100206f          	j	14958 <_vfprintf_r+0x2bc0>
   1284c:	fd0e0713          	add	a4,t3,-48
   12850:	00900793          	li	a5,9
   12854:	00000b13          	li	s6,0
   12858:	00900613          	li	a2,9
   1285c:	02e7e463          	bltu	a5,a4,12884 <_vfprintf_r+0xaec>
   12860:	0006ce03          	lbu	t3,0(a3)
   12864:	002b1793          	sll	a5,s6,0x2
   12868:	016787b3          	add	a5,a5,s6
   1286c:	00179793          	sll	a5,a5,0x1
   12870:	00e78b33          	add	s6,a5,a4
   12874:	fd0e0713          	add	a4,t3,-48
   12878:	00168693          	add	a3,a3,1
   1287c:	fee672e3          	bgeu	a2,a4,12860 <_vfprintf_r+0xac8>
   12880:	320b4ce3          	bltz	s6,133b8 <_vfprintf_r+0x1620>
   12884:	00068913          	mv	s2,a3
   12888:	ec0ff06f          	j	11f48 <_vfprintf_r+0x1b0>
   1288c:	00094e03          	lbu	t3,0(s2)
   12890:	001a6a13          	or	s4,s4,1
   12894:	eb0ff06f          	j	11f44 <_vfprintf_r+0x1ac>
   12898:	07714783          	lbu	a5,119(sp)
   1289c:	00094e03          	lbu	t3,0(s2)
   128a0:	ea079263          	bnez	a5,11f44 <_vfprintf_r+0x1ac>
   128a4:	02000793          	li	a5,32
   128a8:	06f10ba3          	sb	a5,119(sp)
   128ac:	e98ff06f          	j	11f44 <_vfprintf_r+0x1ac>
   128b0:	00094e03          	lbu	t3,0(s2)
   128b4:	06c00793          	li	a5,108
   128b8:	3afe00e3          	beq	t3,a5,13458 <_vfprintf_r+0x16c0>
   128bc:	010a6a13          	or	s4,s4,16
   128c0:	e84ff06f          	j	11f44 <_vfprintf_r+0x1ac>
   128c4:	00094e03          	lbu	t3,0(s2)
   128c8:	008a6a13          	or	s4,s4,8
   128cc:	e78ff06f          	j	11f44 <_vfprintf_r+0x1ac>
   128d0:	000b0313          	mv	t1,s6
   128d4:	010a6e93          	or	t4,s4,16
   128d8:	020ef793          	and	a5,t4,32
   128dc:	0c0786e3          	beqz	a5,131a8 <_vfprintf_r+0x1410>
   128e0:	01412783          	lw	a5,20(sp)
   128e4:	00778b13          	add	s6,a5,7
   128e8:	ff8b7b13          	and	s6,s6,-8
   128ec:	004b2783          	lw	a5,4(s6)
   128f0:	000b2d03          	lw	s10,0(s6)
   128f4:	008b0713          	add	a4,s6,8
   128f8:	00e12a23          	sw	a4,20(sp)
   128fc:	00078c93          	mv	s9,a5
   12900:	0c07cee3          	bltz	a5,131dc <_vfprintf_r+0x1444>
   12904:	000e8613          	mv	a2,t4
   12908:	02034263          	bltz	t1,1292c <_vfprintf_r+0xb94>
   1290c:	019d67b3          	or	a5,s10,s9
   12910:	f7fef613          	and	a2,t4,-129
   12914:	00079c63          	bnez	a5,1292c <_vfprintf_r+0xb94>
   12918:	02031063          	bnez	t1,12938 <_vfprintf_r+0xba0>
   1291c:	00000d13          	li	s10,0
   12920:	00060e93          	mv	t4,a2
   12924:	15010c13          	add	s8,sp,336
   12928:	eddff06f          	j	12804 <_vfprintf_r+0xa6c>
   1292c:	520c90e3          	bnez	s9,1364c <_vfprintf_r+0x18b4>
   12930:	00900793          	li	a5,9
   12934:	51a7ece3          	bltu	a5,s10,1364c <_vfprintf_r+0x18b4>
   12938:	030d0d13          	add	s10,s10,48
   1293c:	15a107a3          	sb	s10,335(sp)
   12940:	00060e93          	mv	t4,a2
   12944:	00100d13          	li	s10,1
   12948:	14f10c13          	add	s8,sp,335
   1294c:	eb9ff06f          	j	12804 <_vfprintf_r+0xa6c>
   12950:	000b0313          	mv	t1,s6
   12954:	010a6e93          	or	t4,s4,16
   12958:	020ef793          	and	a5,t4,32
   1295c:	7e078463          	beqz	a5,13144 <_vfprintf_r+0x13ac>
   12960:	01412783          	lw	a5,20(sp)
   12964:	00778b13          	add	s6,a5,7
   12968:	ff8b7b13          	and	s6,s6,-8
   1296c:	000b2d03          	lw	s10,0(s6)
   12970:	004b2c83          	lw	s9,4(s6)
   12974:	008b0793          	add	a5,s6,8
   12978:	00f12a23          	sw	a5,20(sp)
   1297c:	bffef613          	and	a2,t4,-1025
   12980:	00000793          	li	a5,0
   12984:	e55ff06f          	j	127d8 <_vfprintf_r+0xa40>
   12988:	00094e03          	lbu	t3,0(s2)
   1298c:	06800793          	li	a5,104
   12990:	2cfe0ce3          	beq	t3,a5,13468 <_vfprintf_r+0x16d0>
   12994:	040a6a13          	or	s4,s4,64
   12998:	dacff06f          	j	11f44 <_vfprintf_r+0x1ac>
   1299c:	01412703          	lw	a4,20(sp)
   129a0:	000087b7          	lui	a5,0x8
   129a4:	83078793          	add	a5,a5,-2000 # 7830 <exit-0x8864>
   129a8:	06f11c23          	sh	a5,120(sp)
   129ac:	00470793          	add	a5,a4,4
   129b0:	00f12a23          	sw	a5,20(sp)
   129b4:	0000f797          	auipc	a5,0xf
   129b8:	19078793          	add	a5,a5,400 # 21b44 <__clzsi2+0xd0>
   129bc:	02f12c23          	sw	a5,56(sp)
   129c0:	00072d03          	lw	s10,0(a4)
   129c4:	000b0313          	mv	t1,s6
   129c8:	00000c93          	li	s9,0
   129cc:	002a6613          	or	a2,s4,2
   129d0:	00200793          	li	a5,2
   129d4:	07800e13          	li	t3,120
   129d8:	e01ff06f          	j	127d8 <_vfprintf_r+0xa40>
   129dc:	020a7793          	and	a5,s4,32
   129e0:	180784e3          	beqz	a5,13368 <_vfprintf_r+0x15d0>
   129e4:	01412783          	lw	a5,20(sp)
   129e8:	00c12683          	lw	a3,12(sp)
   129ec:	0007a783          	lw	a5,0(a5)
   129f0:	41f6d713          	sra	a4,a3,0x1f
   129f4:	00d7a023          	sw	a3,0(a5)
   129f8:	00e7a223          	sw	a4,4(a5)
   129fc:	01412783          	lw	a5,20(sp)
   12a00:	00090c13          	mv	s8,s2
   12a04:	00478793          	add	a5,a5,4
   12a08:	00f12a23          	sw	a5,20(sp)
   12a0c:	cccff06f          	j	11ed8 <_vfprintf_r+0x140>
   12a10:	06500713          	li	a4,101
   12a14:	b3c754e3          	bge	a4,t3,1253c <_vfprintf_r+0x7a4>
   12a18:	02812683          	lw	a3,40(sp)
   12a1c:	02c12703          	lw	a4,44(sp)
   12a20:	00000613          	li	a2,0
   12a24:	00068513          	mv	a0,a3
   12a28:	00070593          	mv	a1,a4
   12a2c:	00000693          	li	a3,0
   12a30:	05d12223          	sw	t4,68(sp)
   12a34:	60c0d0ef          	jal	20040 <__eqdf2>
   12a38:	04412e83          	lw	t4,68(sp)
   12a3c:	4e051463          	bnez	a0,12f24 <_vfprintf_r+0x118c>
   12a40:	0a412783          	lw	a5,164(sp)
   12a44:	0000f717          	auipc	a4,0xf
   12a48:	13070713          	add	a4,a4,304 # 21b74 <__clzsi2+0x100>
   12a4c:	00e42023          	sw	a4,0(s0)
   12a50:	00148493          	add	s1,s1,1
   12a54:	00100713          	li	a4,1
   12a58:	00178793          	add	a5,a5,1
   12a5c:	00e42223          	sw	a4,4(s0)
   12a60:	0a912423          	sw	s1,168(sp)
   12a64:	0af12223          	sw	a5,164(sp)
   12a68:	00700713          	li	a4,7
   12a6c:	00840413          	add	s0,s0,8
   12a70:	62f746e3          	blt	a4,a5,1389c <_vfprintf_r+0x1b04>
   12a74:	07c12783          	lw	a5,124(sp)
   12a78:	01812703          	lw	a4,24(sp)
   12a7c:	78e7de63          	bge	a5,a4,13218 <_vfprintf_r+0x1480>
   12a80:	03412783          	lw	a5,52(sp)
   12a84:	03012703          	lw	a4,48(sp)
   12a88:	00840413          	add	s0,s0,8
   12a8c:	fef42c23          	sw	a5,-8(s0)
   12a90:	0a412783          	lw	a5,164(sp)
   12a94:	00e484b3          	add	s1,s1,a4
   12a98:	fee42e23          	sw	a4,-4(s0)
   12a9c:	00178793          	add	a5,a5,1
   12aa0:	0a912423          	sw	s1,168(sp)
   12aa4:	0af12223          	sw	a5,164(sp)
   12aa8:	00700713          	li	a4,7
   12aac:	1cf746e3          	blt	a4,a5,13478 <_vfprintf_r+0x16e0>
   12ab0:	01812783          	lw	a5,24(sp)
   12ab4:	fff78d13          	add	s10,a5,-1
   12ab8:	dfa05263          	blez	s10,1209c <_vfprintf_r+0x304>
   12abc:	01000713          	li	a4,16
   12ac0:	0a412783          	lw	a5,164(sp)
   12ac4:	0000f297          	auipc	t0,0xf
   12ac8:	55028293          	add	t0,t0,1360 # 22014 <zeroes.0>
   12acc:	77a752e3          	bge	a4,s10,13a30 <_vfprintf_r+0x1c98>
   12ad0:	00048713          	mv	a4,s1
   12ad4:	01000c13          	li	s8,16
   12ad8:	00700b13          	li	s6,7
   12adc:	000e8493          	mv	s1,t4
   12ae0:	00028a13          	mv	s4,t0
   12ae4:	00c0006f          	j	12af0 <_vfprintf_r+0xd58>
   12ae8:	ff0d0d13          	add	s10,s10,-16
   12aec:	73ac5ce3          	bge	s8,s10,13a24 <_vfprintf_r+0x1c8c>
   12af0:	01070713          	add	a4,a4,16
   12af4:	00178793          	add	a5,a5,1
   12af8:	01442023          	sw	s4,0(s0)
   12afc:	01842223          	sw	s8,4(s0)
   12b00:	0ae12423          	sw	a4,168(sp)
   12b04:	0af12223          	sw	a5,164(sp)
   12b08:	00840413          	add	s0,s0,8
   12b0c:	fcfb5ee3          	bge	s6,a5,12ae8 <_vfprintf_r+0xd50>
   12b10:	00812583          	lw	a1,8(sp)
   12b14:	0a010613          	add	a2,sp,160
   12b18:	00098513          	mv	a0,s3
   12b1c:	148020ef          	jal	14c64 <__sprint_r>
   12b20:	f4051263          	bnez	a0,12264 <_vfprintf_r+0x4cc>
   12b24:	0a812703          	lw	a4,168(sp)
   12b28:	0a412783          	lw	a5,164(sp)
   12b2c:	0ac10413          	add	s0,sp,172
   12b30:	fb9ff06f          	j	12ae8 <_vfprintf_r+0xd50>
   12b34:	000e8613          	mv	a2,t4
   12b38:	00100713          	li	a4,1
   12b3c:	dee788e3          	beq	a5,a4,1292c <_vfprintf_r+0xb94>
   12b40:	00200713          	li	a4,2
   12b44:	06e78c63          	beq	a5,a4,12bbc <_vfprintf_r+0xe24>
   12b48:	15010c13          	add	s8,sp,336
   12b4c:	01dc9793          	sll	a5,s9,0x1d
   12b50:	007d7713          	and	a4,s10,7
   12b54:	003d5d13          	srl	s10,s10,0x3
   12b58:	03070713          	add	a4,a4,48
   12b5c:	01a7ed33          	or	s10,a5,s10
   12b60:	003cdc93          	srl	s9,s9,0x3
   12b64:	feec0fa3          	sb	a4,-1(s8)
   12b68:	019d67b3          	or	a5,s10,s9
   12b6c:	000c0593          	mv	a1,s8
   12b70:	fffc0c13          	add	s8,s8,-1
   12b74:	fc079ce3          	bnez	a5,12b4c <_vfprintf_r+0xdb4>
   12b78:	00167693          	and	a3,a2,1
   12b7c:	06068a63          	beqz	a3,12bf0 <_vfprintf_r+0xe58>
   12b80:	03000693          	li	a3,48
   12b84:	06d70663          	beq	a4,a3,12bf0 <_vfprintf_r+0xe58>
   12b88:	ffe58593          	add	a1,a1,-2 # 1ffe <exit-0xe096>
   12b8c:	15010793          	add	a5,sp,336
   12b90:	fedc0fa3          	sb	a3,-1(s8)
   12b94:	40b78d33          	sub	s10,a5,a1
   12b98:	00060e93          	mv	t4,a2
   12b9c:	00058c13          	mv	s8,a1
   12ba0:	c65ff06f          	j	12804 <_vfprintf_r+0xa6c>
   12ba4:	00100713          	li	a4,1
   12ba8:	00e79463          	bne	a5,a4,12bb0 <_vfprintf_r+0xe18>
   12bac:	2b10106f          	j	1465c <_vfprintf_r+0x28c4>
   12bb0:	00200713          	li	a4,2
   12bb4:	000e8613          	mv	a2,t4
   12bb8:	f8e798e3          	bne	a5,a4,12b48 <_vfprintf_r+0xdb0>
   12bbc:	03812683          	lw	a3,56(sp)
   12bc0:	15010c13          	add	s8,sp,336
   12bc4:	00fd7793          	and	a5,s10,15
   12bc8:	00f687b3          	add	a5,a3,a5
   12bcc:	0007c703          	lbu	a4,0(a5)
   12bd0:	004d5d13          	srl	s10,s10,0x4
   12bd4:	01cc9793          	sll	a5,s9,0x1c
   12bd8:	01a7ed33          	or	s10,a5,s10
   12bdc:	004cdc93          	srl	s9,s9,0x4
   12be0:	feec0fa3          	sb	a4,-1(s8)
   12be4:	019d67b3          	or	a5,s10,s9
   12be8:	fffc0c13          	add	s8,s8,-1
   12bec:	fc079ce3          	bnez	a5,12bc4 <_vfprintf_r+0xe2c>
   12bf0:	15010793          	add	a5,sp,336
   12bf4:	41878d33          	sub	s10,a5,s8
   12bf8:	00060e93          	mv	t4,a2
   12bfc:	c09ff06f          	j	12804 <_vfprintf_r+0xa6c>
   12c00:	419b8b33          	sub	s6,s7,s9
   12c04:	c7605063          	blez	s6,12064 <_vfprintf_r+0x2cc>
   12c08:	01000593          	li	a1,16
   12c0c:	0a412603          	lw	a2,164(sp)
   12c10:	0000f297          	auipc	t0,0xf
   12c14:	40428293          	add	t0,t0,1028 # 22014 <zeroes.0>
   12c18:	0b65d463          	bge	a1,s6,12cc0 <_vfprintf_r+0xf28>
   12c1c:	00040793          	mv	a5,s0
   12c20:	00048713          	mv	a4,s1
   12c24:	000b0413          	mv	s0,s6
   12c28:	01000893          	li	a7,16
   12c2c:	000a0b13          	mv	s6,s4
   12c30:	00700f93          	li	t6,7
   12c34:	05d12223          	sw	t4,68(sp)
   12c38:	05c12823          	sw	t3,80(sp)
   12c3c:	00030a13          	mv	s4,t1
   12c40:	00028493          	mv	s1,t0
   12c44:	00c0006f          	j	12c50 <_vfprintf_r+0xeb8>
   12c48:	ff040413          	add	s0,s0,-16
   12c4c:	0488da63          	bge	a7,s0,12ca0 <_vfprintf_r+0xf08>
   12c50:	01070713          	add	a4,a4,16
   12c54:	00160613          	add	a2,a2,1
   12c58:	0097a023          	sw	s1,0(a5)
   12c5c:	0117a223          	sw	a7,4(a5)
   12c60:	0ae12423          	sw	a4,168(sp)
   12c64:	0ac12223          	sw	a2,164(sp)
   12c68:	00878793          	add	a5,a5,8
   12c6c:	fccfdee3          	bge	t6,a2,12c48 <_vfprintf_r+0xeb0>
   12c70:	00812583          	lw	a1,8(sp)
   12c74:	0a010613          	add	a2,sp,160
   12c78:	00098513          	mv	a0,s3
   12c7c:	7e9010ef          	jal	14c64 <__sprint_r>
   12c80:	de051263          	bnez	a0,12264 <_vfprintf_r+0x4cc>
   12c84:	01000893          	li	a7,16
   12c88:	ff040413          	add	s0,s0,-16
   12c8c:	0a812703          	lw	a4,168(sp)
   12c90:	0a412603          	lw	a2,164(sp)
   12c94:	0ac10793          	add	a5,sp,172
   12c98:	00700f93          	li	t6,7
   12c9c:	fa88cae3          	blt	a7,s0,12c50 <_vfprintf_r+0xeb8>
   12ca0:	04412e83          	lw	t4,68(sp)
   12ca4:	05012e03          	lw	t3,80(sp)
   12ca8:	000a0313          	mv	t1,s4
   12cac:	00048293          	mv	t0,s1
   12cb0:	000b0a13          	mv	s4,s6
   12cb4:	00070493          	mv	s1,a4
   12cb8:	00040b13          	mv	s6,s0
   12cbc:	00078413          	mv	s0,a5
   12cc0:	016484b3          	add	s1,s1,s6
   12cc4:	00160613          	add	a2,a2,1
   12cc8:	00542023          	sw	t0,0(s0)
   12ccc:	01642223          	sw	s6,4(s0)
   12cd0:	0a912423          	sw	s1,168(sp)
   12cd4:	0ac12223          	sw	a2,164(sp)
   12cd8:	00700713          	li	a4,7
   12cdc:	00840413          	add	s0,s0,8
   12ce0:	b8c75263          	bge	a4,a2,12064 <_vfprintf_r+0x2cc>
   12ce4:	00812583          	lw	a1,8(sp)
   12ce8:	0a010613          	add	a2,sp,160
   12cec:	00098513          	mv	a0,s3
   12cf0:	04612a23          	sw	t1,84(sp)
   12cf4:	05c12823          	sw	t3,80(sp)
   12cf8:	05d12223          	sw	t4,68(sp)
   12cfc:	769010ef          	jal	14c64 <__sprint_r>
   12d00:	d6051263          	bnez	a0,12264 <_vfprintf_r+0x4cc>
   12d04:	0a812483          	lw	s1,168(sp)
   12d08:	05412303          	lw	t1,84(sp)
   12d0c:	05012e03          	lw	t3,80(sp)
   12d10:	04412e83          	lw	t4,68(sp)
   12d14:	0ac10413          	add	s0,sp,172
   12d18:	b4cff06f          	j	12064 <_vfprintf_r+0x2cc>
   12d1c:	01000713          	li	a4,16
   12d20:	0a412603          	lw	a2,164(sp)
   12d24:	0000f297          	auipc	t0,0xf
   12d28:	2f028293          	add	t0,t0,752 # 22014 <zeroes.0>
   12d2c:	0b675063          	bge	a4,s6,12dcc <_vfprintf_r+0x1034>
   12d30:	00040793          	mv	a5,s0
   12d34:	00048693          	mv	a3,s1
   12d38:	000b0413          	mv	s0,s6
   12d3c:	01000713          	li	a4,16
   12d40:	00700893          	li	a7,7
   12d44:	05d12223          	sw	t4,68(sp)
   12d48:	000e0493          	mv	s1,t3
   12d4c:	00028b13          	mv	s6,t0
   12d50:	00c0006f          	j	12d5c <_vfprintf_r+0xfc4>
   12d54:	ff040413          	add	s0,s0,-16
   12d58:	04875e63          	bge	a4,s0,12db4 <_vfprintf_r+0x101c>
   12d5c:	01068693          	add	a3,a3,16
   12d60:	00160613          	add	a2,a2,1
   12d64:	0000f597          	auipc	a1,0xf
   12d68:	2b058593          	add	a1,a1,688 # 22014 <zeroes.0>
   12d6c:	00b7a023          	sw	a1,0(a5)
   12d70:	00e7a223          	sw	a4,4(a5)
   12d74:	0ad12423          	sw	a3,168(sp)
   12d78:	0ac12223          	sw	a2,164(sp)
   12d7c:	00878793          	add	a5,a5,8
   12d80:	fcc8dae3          	bge	a7,a2,12d54 <_vfprintf_r+0xfbc>
   12d84:	00812583          	lw	a1,8(sp)
   12d88:	0a010613          	add	a2,sp,160
   12d8c:	00098513          	mv	a0,s3
   12d90:	6d5010ef          	jal	14c64 <__sprint_r>
   12d94:	cc051863          	bnez	a0,12264 <_vfprintf_r+0x4cc>
   12d98:	01000713          	li	a4,16
   12d9c:	ff040413          	add	s0,s0,-16
   12da0:	0a812683          	lw	a3,168(sp)
   12da4:	0a412603          	lw	a2,164(sp)
   12da8:	0ac10793          	add	a5,sp,172
   12dac:	00700893          	li	a7,7
   12db0:	fa8746e3          	blt	a4,s0,12d5c <_vfprintf_r+0xfc4>
   12db4:	04412e83          	lw	t4,68(sp)
   12db8:	00048e13          	mv	t3,s1
   12dbc:	000b0293          	mv	t0,s6
   12dc0:	00068493          	mv	s1,a3
   12dc4:	00040b13          	mv	s6,s0
   12dc8:	00078413          	mv	s0,a5
   12dcc:	016484b3          	add	s1,s1,s6
   12dd0:	00160613          	add	a2,a2,1
   12dd4:	00542023          	sw	t0,0(s0)
   12dd8:	01642223          	sw	s6,4(s0)
   12ddc:	0a912423          	sw	s1,168(sp)
   12de0:	0ac12223          	sw	a2,164(sp)
   12de4:	00700713          	li	a4,7
   12de8:	00840413          	add	s0,s0,8
   12dec:	a8c75063          	bge	a4,a2,1206c <_vfprintf_r+0x2d4>
   12df0:	00812583          	lw	a1,8(sp)
   12df4:	0a010613          	add	a2,sp,160
   12df8:	00098513          	mv	a0,s3
   12dfc:	05c12823          	sw	t3,80(sp)
   12e00:	05d12223          	sw	t4,68(sp)
   12e04:	661010ef          	jal	14c64 <__sprint_r>
   12e08:	c4051e63          	bnez	a0,12264 <_vfprintf_r+0x4cc>
   12e0c:	0a812483          	lw	s1,168(sp)
   12e10:	05012e03          	lw	t3,80(sp)
   12e14:	04412e83          	lw	t4,68(sp)
   12e18:	0ac10413          	add	s0,sp,172
   12e1c:	a50ff06f          	j	1206c <_vfprintf_r+0x2d4>
   12e20:	00812583          	lw	a1,8(sp)
   12e24:	0a010613          	add	a2,sp,160
   12e28:	00098513          	mv	a0,s3
   12e2c:	04612c23          	sw	t1,88(sp)
   12e30:	05c12a23          	sw	t3,84(sp)
   12e34:	05d12823          	sw	t4,80(sp)
   12e38:	05f12223          	sw	t6,68(sp)
   12e3c:	629010ef          	jal	14c64 <__sprint_r>
   12e40:	c2051263          	bnez	a0,12264 <_vfprintf_r+0x4cc>
   12e44:	0a812483          	lw	s1,168(sp)
   12e48:	05812303          	lw	t1,88(sp)
   12e4c:	05412e03          	lw	t3,84(sp)
   12e50:	05012e83          	lw	t4,80(sp)
   12e54:	04412f83          	lw	t6,68(sp)
   12e58:	0ac10413          	add	s0,sp,172
   12e5c:	a00ff06f          	j	1205c <_vfprintf_r+0x2c4>
   12e60:	01000713          	li	a4,16
   12e64:	0a412783          	lw	a5,164(sp)
   12e68:	0000fb17          	auipc	s6,0xf
   12e6c:	1bcb0b13          	add	s6,s6,444 # 22024 <blanks.1>
   12e70:	07a75c63          	bge	a4,s10,12ee8 <_vfprintf_r+0x1150>
   12e74:	000b0713          	mv	a4,s6
   12e78:	01000c13          	li	s8,16
   12e7c:	00090b13          	mv	s6,s2
   12e80:	00700a13          	li	s4,7
   12e84:	00070913          	mv	s2,a4
   12e88:	00c0006f          	j	12e94 <_vfprintf_r+0x10fc>
   12e8c:	ff0d0d13          	add	s10,s10,-16
   12e90:	05ac5663          	bge	s8,s10,12edc <_vfprintf_r+0x1144>
   12e94:	01048493          	add	s1,s1,16
   12e98:	00178793          	add	a5,a5,1
   12e9c:	01242023          	sw	s2,0(s0)
   12ea0:	01842223          	sw	s8,4(s0)
   12ea4:	0a912423          	sw	s1,168(sp)
   12ea8:	0af12223          	sw	a5,164(sp)
   12eac:	00840413          	add	s0,s0,8
   12eb0:	fcfa5ee3          	bge	s4,a5,12e8c <_vfprintf_r+0x10f4>
   12eb4:	00812583          	lw	a1,8(sp)
   12eb8:	0a010613          	add	a2,sp,160
   12ebc:	00098513          	mv	a0,s3
   12ec0:	5a5010ef          	jal	14c64 <__sprint_r>
   12ec4:	ba051063          	bnez	a0,12264 <_vfprintf_r+0x4cc>
   12ec8:	ff0d0d13          	add	s10,s10,-16
   12ecc:	0a812483          	lw	s1,168(sp)
   12ed0:	0a412783          	lw	a5,164(sp)
   12ed4:	0ac10413          	add	s0,sp,172
   12ed8:	fbac4ee3          	blt	s8,s10,12e94 <_vfprintf_r+0x10fc>
   12edc:	00090713          	mv	a4,s2
   12ee0:	000b0913          	mv	s2,s6
   12ee4:	00070b13          	mv	s6,a4
   12ee8:	01a484b3          	add	s1,s1,s10
   12eec:	00178793          	add	a5,a5,1
   12ef0:	01642023          	sw	s6,0(s0)
   12ef4:	01a42223          	sw	s10,4(s0)
   12ef8:	0a912423          	sw	s1,168(sp)
   12efc:	0af12223          	sw	a5,164(sp)
   12f00:	00700713          	li	a4,7
   12f04:	9af75463          	bge	a4,a5,120ac <_vfprintf_r+0x314>
   12f08:	00812583          	lw	a1,8(sp)
   12f0c:	0a010613          	add	a2,sp,160
   12f10:	00098513          	mv	a0,s3
   12f14:	551010ef          	jal	14c64 <__sprint_r>
   12f18:	b4051663          	bnez	a0,12264 <_vfprintf_r+0x4cc>
   12f1c:	0a812483          	lw	s1,168(sp)
   12f20:	98cff06f          	j	120ac <_vfprintf_r+0x314>
   12f24:	07c12683          	lw	a3,124(sp)
   12f28:	30d05c63          	blez	a3,13240 <_vfprintf_r+0x14a8>
   12f2c:	01812783          	lw	a5,24(sp)
   12f30:	000a0b13          	mv	s6,s4
   12f34:	0147d463          	bge	a5,s4,12f3c <_vfprintf_r+0x11a4>
   12f38:	00078b13          	mv	s6,a5
   12f3c:	03605863          	blez	s6,12f6c <_vfprintf_r+0x11d4>
   12f40:	0a412683          	lw	a3,164(sp)
   12f44:	016484b3          	add	s1,s1,s6
   12f48:	01842023          	sw	s8,0(s0)
   12f4c:	00168693          	add	a3,a3,1
   12f50:	01642223          	sw	s6,4(s0)
   12f54:	0a912423          	sw	s1,168(sp)
   12f58:	0ad12223          	sw	a3,164(sp)
   12f5c:	00700613          	li	a2,7
   12f60:	00840413          	add	s0,s0,8
   12f64:	00d65463          	bge	a2,a3,12f6c <_vfprintf_r+0x11d4>
   12f68:	5c40106f          	j	1452c <_vfprintf_r+0x2794>
   12f6c:	fffb4693          	not	a3,s6
   12f70:	41f6d693          	sra	a3,a3,0x1f
   12f74:	00db7733          	and	a4,s6,a3
   12f78:	40ea0b33          	sub	s6,s4,a4
   12f7c:	35604ae3          	bgtz	s6,13ad0 <_vfprintf_r+0x1d38>
   12f80:	400ef713          	and	a4,t4,1024
   12f84:	014c0333          	add	t1,s8,s4
   12f88:	00070463          	beqz	a4,12f90 <_vfprintf_r+0x11f8>
   12f8c:	2980106f          	j	14224 <_vfprintf_r+0x248c>
   12f90:	07c12d03          	lw	s10,124(sp)
   12f94:	01812783          	lw	a5,24(sp)
   12f98:	5afd4063          	blt	s10,a5,13538 <_vfprintf_r+0x17a0>
   12f9c:	001ef713          	and	a4,t4,1
   12fa0:	58071c63          	bnez	a4,13538 <_vfprintf_r+0x17a0>
   12fa4:	01812703          	lw	a4,24(sp)
   12fa8:	00ec07b3          	add	a5,s8,a4
   12fac:	41a70d33          	sub	s10,a4,s10
   12fb0:	40678b33          	sub	s6,a5,t1
   12fb4:	016d5463          	bge	s10,s6,12fbc <_vfprintf_r+0x1224>
   12fb8:	000d0b13          	mv	s6,s10
   12fbc:	03605863          	blez	s6,12fec <_vfprintf_r+0x1254>
   12fc0:	0a412703          	lw	a4,164(sp)
   12fc4:	016484b3          	add	s1,s1,s6
   12fc8:	00642023          	sw	t1,0(s0)
   12fcc:	00170713          	add	a4,a4,1
   12fd0:	01642223          	sw	s6,4(s0)
   12fd4:	0a912423          	sw	s1,168(sp)
   12fd8:	0ae12223          	sw	a4,164(sp)
   12fdc:	00700693          	li	a3,7
   12fe0:	00840413          	add	s0,s0,8
   12fe4:	00e6d463          	bge	a3,a4,12fec <_vfprintf_r+0x1254>
   12fe8:	5880106f          	j	14570 <_vfprintf_r+0x27d8>
   12fec:	fffb4713          	not	a4,s6
   12ff0:	41f75713          	sra	a4,a4,0x1f
   12ff4:	00eb77b3          	and	a5,s6,a4
   12ff8:	40fd0d33          	sub	s10,s10,a5
   12ffc:	8ba05063          	blez	s10,1209c <_vfprintf_r+0x304>
   13000:	01000713          	li	a4,16
   13004:	0a412783          	lw	a5,164(sp)
   13008:	0000f297          	auipc	t0,0xf
   1300c:	00c28293          	add	t0,t0,12 # 22014 <zeroes.0>
   13010:	23a750e3          	bge	a4,s10,13a30 <_vfprintf_r+0x1c98>
   13014:	00048713          	mv	a4,s1
   13018:	01000c13          	li	s8,16
   1301c:	00700b13          	li	s6,7
   13020:	000e8493          	mv	s1,t4
   13024:	00028a13          	mv	s4,t0
   13028:	00c0006f          	j	13034 <_vfprintf_r+0x129c>
   1302c:	ff0d0d13          	add	s10,s10,-16
   13030:	1fac5ae3          	bge	s8,s10,13a24 <_vfprintf_r+0x1c8c>
   13034:	01070713          	add	a4,a4,16
   13038:	00178793          	add	a5,a5,1
   1303c:	01442023          	sw	s4,0(s0)
   13040:	01842223          	sw	s8,4(s0)
   13044:	0ae12423          	sw	a4,168(sp)
   13048:	0af12223          	sw	a5,164(sp)
   1304c:	00840413          	add	s0,s0,8
   13050:	fcfb5ee3          	bge	s6,a5,1302c <_vfprintf_r+0x1294>
   13054:	00812583          	lw	a1,8(sp)
   13058:	0a010613          	add	a2,sp,160
   1305c:	00098513          	mv	a0,s3
   13060:	405010ef          	jal	14c64 <__sprint_r>
   13064:	a0051063          	bnez	a0,12264 <_vfprintf_r+0x4cc>
   13068:	0a812703          	lw	a4,168(sp)
   1306c:	0a412783          	lw	a5,164(sp)
   13070:	0ac10413          	add	s0,sp,172
   13074:	fb9ff06f          	j	1302c <_vfprintf_r+0x1294>
   13078:	001ef613          	and	a2,t4,1
   1307c:	ce061063          	bnez	a2,1255c <_vfprintf_r+0x7c4>
   13080:	00d42223          	sw	a3,4(s0)
   13084:	0a912423          	sw	s1,168(sp)
   13088:	0ba12223          	sw	s10,164(sp)
   1308c:	00700793          	li	a5,7
   13090:	d7a7d863          	bge	a5,s10,12600 <_vfprintf_r+0x868>
   13094:	00812583          	lw	a1,8(sp)
   13098:	0a010613          	add	a2,sp,160
   1309c:	00098513          	mv	a0,s3
   130a0:	03d12023          	sw	t4,32(sp)
   130a4:	3c1010ef          	jal	14c64 <__sprint_r>
   130a8:	9a051e63          	bnez	a0,12264 <_vfprintf_r+0x4cc>
   130ac:	0a812483          	lw	s1,168(sp)
   130b0:	0a412d03          	lw	s10,164(sp)
   130b4:	02012e83          	lw	t4,32(sp)
   130b8:	0ac10b13          	add	s6,sp,172
   130bc:	d44ff06f          	j	12600 <_vfprintf_r+0x868>
   130c0:	01812703          	lw	a4,24(sp)
   130c4:	00100793          	li	a5,1
   130c8:	d2e7dc63          	bge	a5,a4,12600 <_vfprintf_r+0x868>
   130cc:	01100793          	li	a5,17
   130d0:	0000f297          	auipc	t0,0xf
   130d4:	f4428293          	add	t0,t0,-188 # 22014 <zeroes.0>
   130d8:	18e7d4e3          	bge	a5,a4,13a60 <_vfprintf_r+0x1cc8>
   130dc:	00040a13          	mv	s4,s0
   130e0:	01000793          	li	a5,16
   130e4:	00700c13          	li	s8,7
   130e8:	03d12023          	sw	t4,32(sp)
   130ec:	00028413          	mv	s0,t0
   130f0:	00c0006f          	j	130fc <_vfprintf_r+0x1364>
   130f4:	ff0a0a13          	add	s4,s4,-16
   130f8:	1547dee3          	bge	a5,s4,13a54 <_vfprintf_r+0x1cbc>
   130fc:	01048493          	add	s1,s1,16
   13100:	001d0d13          	add	s10,s10,1
   13104:	008b2023          	sw	s0,0(s6)
   13108:	00fb2223          	sw	a5,4(s6)
   1310c:	0a912423          	sw	s1,168(sp)
   13110:	0ba12223          	sw	s10,164(sp)
   13114:	008b0b13          	add	s6,s6,8
   13118:	fdac5ee3          	bge	s8,s10,130f4 <_vfprintf_r+0x135c>
   1311c:	00812583          	lw	a1,8(sp)
   13120:	0a010613          	add	a2,sp,160
   13124:	00098513          	mv	a0,s3
   13128:	33d010ef          	jal	14c64 <__sprint_r>
   1312c:	92051c63          	bnez	a0,12264 <_vfprintf_r+0x4cc>
   13130:	0a812483          	lw	s1,168(sp)
   13134:	0a412d03          	lw	s10,164(sp)
   13138:	0ac10b13          	add	s6,sp,172
   1313c:	01000793          	li	a5,16
   13140:	fb5ff06f          	j	130f4 <_vfprintf_r+0x135c>
   13144:	01412703          	lw	a4,20(sp)
   13148:	010ef793          	and	a5,t4,16
   1314c:	00072d03          	lw	s10,0(a4)
   13150:	00470713          	add	a4,a4,4
   13154:	00e12a23          	sw	a4,20(sp)
   13158:	1a079663          	bnez	a5,13304 <_vfprintf_r+0x156c>
   1315c:	040ef793          	and	a5,t4,64
   13160:	18078e63          	beqz	a5,132fc <_vfprintf_r+0x1564>
   13164:	010d1d13          	sll	s10,s10,0x10
   13168:	010d5d13          	srl	s10,s10,0x10
   1316c:	00000c93          	li	s9,0
   13170:	80dff06f          	j	1297c <_vfprintf_r+0xbe4>
   13174:	01412703          	lw	a4,20(sp)
   13178:	01067793          	and	a5,a2,16
   1317c:	00072d03          	lw	s10,0(a4)
   13180:	00470713          	add	a4,a4,4
   13184:	00e12a23          	sw	a4,20(sp)
   13188:	14079a63          	bnez	a5,132dc <_vfprintf_r+0x1544>
   1318c:	04067793          	and	a5,a2,64
   13190:	14078063          	beqz	a5,132d0 <_vfprintf_r+0x1538>
   13194:	010d1d13          	sll	s10,s10,0x10
   13198:	010d5d13          	srl	s10,s10,0x10
   1319c:	00000c93          	li	s9,0
   131a0:	00100793          	li	a5,1
   131a4:	e34ff06f          	j	127d8 <_vfprintf_r+0xa40>
   131a8:	01412703          	lw	a4,20(sp)
   131ac:	010ef793          	and	a5,t4,16
   131b0:	00072d03          	lw	s10,0(a4)
   131b4:	00470713          	add	a4,a4,4
   131b8:	00e12a23          	sw	a4,20(sp)
   131bc:	12079a63          	bnez	a5,132f0 <_vfprintf_r+0x1558>
   131c0:	040ef793          	and	a5,t4,64
   131c4:	12078263          	beqz	a5,132e8 <_vfprintf_r+0x1550>
   131c8:	010d1d13          	sll	s10,s10,0x10
   131cc:	410d5d13          	sra	s10,s10,0x10
   131d0:	41fd5c93          	sra	s9,s10,0x1f
   131d4:	000c8793          	mv	a5,s9
   131d8:	f207d663          	bgez	a5,12904 <_vfprintf_r+0xb6c>
   131dc:	01a037b3          	snez	a5,s10
   131e0:	419000b3          	neg	ra,s9
   131e4:	40f08cb3          	sub	s9,ra,a5
   131e8:	41a00d33          	neg	s10,s10
   131ec:	000e8613          	mv	a2,t4
   131f0:	02d00713          	li	a4,45
   131f4:	00100793          	li	a5,1
   131f8:	de4ff06f          	j	127dc <_vfprintf_r+0xa44>
   131fc:	00812403          	lw	s0,8(sp)
   13200:	00f12623          	sw	a5,12(sp)
   13204:	05842503          	lw	a0,88(s0)
   13208:	c51fd0ef          	jal	10e58 <__retarget_lock_acquire_recursive>
   1320c:	00c41703          	lh	a4,12(s0)
   13210:	00c12783          	lw	a5,12(sp)
   13214:	c05fe06f          	j	11e18 <_vfprintf_r+0x80>
   13218:	001ef793          	and	a5,t4,1
   1321c:	00079463          	bnez	a5,13224 <_vfprintf_r+0x148c>
   13220:	e7dfe06f          	j	1209c <_vfprintf_r+0x304>
   13224:	85dff06f          	j	12a80 <_vfprintf_r+0xce8>
   13228:	000a0e93          	mv	t4,s4
   1322c:	000b0313          	mv	t1,s6
   13230:	ea8ff06f          	j	128d8 <_vfprintf_r+0xb40>
   13234:	00094e03          	lbu	t3,0(s2)
   13238:	00f12a23          	sw	a5,20(sp)
   1323c:	d09fe06f          	j	11f44 <_vfprintf_r+0x1ac>
   13240:	0a412703          	lw	a4,164(sp)
   13244:	0000f617          	auipc	a2,0xf
   13248:	93060613          	add	a2,a2,-1744 # 21b74 <__clzsi2+0x100>
   1324c:	00c42023          	sw	a2,0(s0)
   13250:	00148493          	add	s1,s1,1
   13254:	00100613          	li	a2,1
   13258:	00170713          	add	a4,a4,1
   1325c:	00c42223          	sw	a2,4(s0)
   13260:	0a912423          	sw	s1,168(sp)
   13264:	0ae12223          	sw	a4,164(sp)
   13268:	00700613          	li	a2,7
   1326c:	00840413          	add	s0,s0,8
   13270:	2ee64ce3          	blt	a2,a4,13d68 <_vfprintf_r+0x1fd0>
   13274:	7e069e63          	bnez	a3,13a70 <_vfprintf_r+0x1cd8>
   13278:	01812783          	lw	a5,24(sp)
   1327c:	001ef713          	and	a4,t4,1
   13280:	00f76733          	or	a4,a4,a5
   13284:	00071463          	bnez	a4,1328c <_vfprintf_r+0x14f4>
   13288:	e15fe06f          	j	1209c <_vfprintf_r+0x304>
   1328c:	03412703          	lw	a4,52(sp)
   13290:	03012783          	lw	a5,48(sp)
   13294:	00700693          	li	a3,7
   13298:	00e42023          	sw	a4,0(s0)
   1329c:	0a412703          	lw	a4,164(sp)
   132a0:	009784b3          	add	s1,a5,s1
   132a4:	00f42223          	sw	a5,4(s0)
   132a8:	00170713          	add	a4,a4,1
   132ac:	0a912423          	sw	s1,168(sp)
   132b0:	0ae12223          	sw	a4,164(sp)
   132b4:	38e6c8e3          	blt	a3,a4,13e44 <_vfprintf_r+0x20ac>
   132b8:	00840413          	add	s0,s0,8
   132bc:	7e80006f          	j	13aa4 <_vfprintf_r+0x1d0c>
   132c0:	03000793          	li	a5,48
   132c4:	14f107a3          	sb	a5,335(sp)
   132c8:	14f10c13          	add	s8,sp,335
   132cc:	d38ff06f          	j	12804 <_vfprintf_r+0xa6c>
   132d0:	20067793          	and	a5,a2,512
   132d4:	00078463          	beqz	a5,132dc <_vfprintf_r+0x1544>
   132d8:	0ffd7d13          	zext.b	s10,s10
   132dc:	00000c93          	li	s9,0
   132e0:	00100793          	li	a5,1
   132e4:	cf4ff06f          	j	127d8 <_vfprintf_r+0xa40>
   132e8:	200ef793          	and	a5,t4,512
   132ec:	2c0796e3          	bnez	a5,13db8 <_vfprintf_r+0x2020>
   132f0:	41fd5c93          	sra	s9,s10,0x1f
   132f4:	000c8793          	mv	a5,s9
   132f8:	e08ff06f          	j	12900 <_vfprintf_r+0xb68>
   132fc:	200ef793          	and	a5,t4,512
   13300:	2a0790e3          	bnez	a5,13da0 <_vfprintf_r+0x2008>
   13304:	00000c93          	li	s9,0
   13308:	e74ff06f          	j	1297c <_vfprintf_r+0xbe4>
   1330c:	01412783          	lw	a5,20(sp)
   13310:	06010513          	add	a0,sp,96
   13314:	03612223          	sw	s6,36(sp)
   13318:	0007a703          	lw	a4,0(a5)
   1331c:	03c12023          	sw	t3,32(sp)
   13320:	00478b13          	add	s6,a5,4
   13324:	00072683          	lw	a3,0(a4)
   13328:	01412823          	sw	s4,16(sp)
   1332c:	06d12023          	sw	a3,96(sp)
   13330:	00472683          	lw	a3,4(a4)
   13334:	06d12223          	sw	a3,100(sp)
   13338:	00872683          	lw	a3,8(a4)
   1333c:	06d12423          	sw	a3,104(sp)
   13340:	00c72703          	lw	a4,12(a4)
   13344:	06e12623          	sw	a4,108(sp)
   13348:	2780e0ef          	jal	215c0 <__trunctfdf2>
   1334c:	02012e03          	lw	t3,32(sp)
   13350:	02412303          	lw	t1,36(sp)
   13354:	02a12423          	sw	a0,40(sp)
   13358:	02b12623          	sw	a1,44(sp)
   1335c:	01612a23          	sw	s6,20(sp)
   13360:	000a0e93          	mv	t4,s4
   13364:	fb1fe06f          	j	12314 <_vfprintf_r+0x57c>
   13368:	010a7793          	and	a5,s4,16
   1336c:	6c079a63          	bnez	a5,13a40 <_vfprintf_r+0x1ca8>
   13370:	040a7793          	and	a5,s4,64
   13374:	24079ce3          	bnez	a5,13dcc <_vfprintf_r+0x2034>
   13378:	200a7f13          	and	t5,s4,512
   1337c:	6c0f0263          	beqz	t5,13a40 <_vfprintf_r+0x1ca8>
   13380:	01412783          	lw	a5,20(sp)
   13384:	00c12703          	lw	a4,12(sp)
   13388:	0007a783          	lw	a5,0(a5)
   1338c:	00e78023          	sb	a4,0(a5)
   13390:	e6cff06f          	j	129fc <_vfprintf_r+0xc64>
   13394:	03c12783          	lw	a5,60(sp)
   13398:	00094e03          	lbu	t3,0(s2)
   1339c:	00079463          	bnez	a5,133a4 <_vfprintf_r+0x160c>
   133a0:	ba5fe06f          	j	11f44 <_vfprintf_r+0x1ac>
   133a4:	0007c783          	lbu	a5,0(a5)
   133a8:	00079463          	bnez	a5,133b0 <_vfprintf_r+0x1618>
   133ac:	b99fe06f          	j	11f44 <_vfprintf_r+0x1ac>
   133b0:	400a6a13          	or	s4,s4,1024
   133b4:	b91fe06f          	j	11f44 <_vfprintf_r+0x1ac>
   133b8:	fff00b13          	li	s6,-1
   133bc:	00068913          	mv	s2,a3
   133c0:	b89fe06f          	j	11f48 <_vfprintf_r+0x1b0>
   133c4:	0000e797          	auipc	a5,0xe
   133c8:	79478793          	add	a5,a5,1940 # 21b58 <__clzsi2+0xe4>
   133cc:	000a0e93          	mv	t4,s4
   133d0:	000b0313          	mv	t1,s6
   133d4:	02f12c23          	sw	a5,56(sp)
   133d8:	020ef793          	and	a5,t4,32
   133dc:	1c078263          	beqz	a5,135a0 <_vfprintf_r+0x1808>
   133e0:	01412783          	lw	a5,20(sp)
   133e4:	00778b13          	add	s6,a5,7
   133e8:	ff8b7b13          	and	s6,s6,-8
   133ec:	000b2d03          	lw	s10,0(s6)
   133f0:	004b2c83          	lw	s9,4(s6)
   133f4:	008b0793          	add	a5,s6,8
   133f8:	00f12a23          	sw	a5,20(sp)
   133fc:	001ef793          	and	a5,t4,1
   13400:	00078e63          	beqz	a5,1341c <_vfprintf_r+0x1684>
   13404:	019d67b3          	or	a5,s10,s9
   13408:	00078a63          	beqz	a5,1341c <_vfprintf_r+0x1684>
   1340c:	03000793          	li	a5,48
   13410:	06f10c23          	sb	a5,120(sp)
   13414:	07c10ca3          	sb	t3,121(sp)
   13418:	002eee93          	or	t4,t4,2
   1341c:	bffef613          	and	a2,t4,-1025
   13420:	00200793          	li	a5,2
   13424:	bb4ff06f          	j	127d8 <_vfprintf_r+0xa40>
   13428:	000b0313          	mv	t1,s6
   1342c:	000a0613          	mv	a2,s4
   13430:	b80ff06f          	j	127b0 <_vfprintf_r+0xa18>
   13434:	000a0e93          	mv	t4,s4
   13438:	000b0313          	mv	t1,s6
   1343c:	d1cff06f          	j	12958 <_vfprintf_r+0xbc0>
   13440:	0000e797          	auipc	a5,0xe
   13444:	70478793          	add	a5,a5,1796 # 21b44 <__clzsi2+0xd0>
   13448:	000a0e93          	mv	t4,s4
   1344c:	000b0313          	mv	t1,s6
   13450:	02f12c23          	sw	a5,56(sp)
   13454:	f85ff06f          	j	133d8 <_vfprintf_r+0x1640>
   13458:	00194e03          	lbu	t3,1(s2)
   1345c:	020a6a13          	or	s4,s4,32
   13460:	00190913          	add	s2,s2,1
   13464:	ae1fe06f          	j	11f44 <_vfprintf_r+0x1ac>
   13468:	00194e03          	lbu	t3,1(s2)
   1346c:	200a6a13          	or	s4,s4,512
   13470:	00190913          	add	s2,s2,1
   13474:	ad1fe06f          	j	11f44 <_vfprintf_r+0x1ac>
   13478:	00812583          	lw	a1,8(sp)
   1347c:	0a010613          	add	a2,sp,160
   13480:	00098513          	mv	a0,s3
   13484:	03d12023          	sw	t4,32(sp)
   13488:	7dc010ef          	jal	14c64 <__sprint_r>
   1348c:	00050463          	beqz	a0,13494 <_vfprintf_r+0x16fc>
   13490:	dd5fe06f          	j	12264 <_vfprintf_r+0x4cc>
   13494:	0a812483          	lw	s1,168(sp)
   13498:	02012e83          	lw	t4,32(sp)
   1349c:	0ac10413          	add	s0,sp,172
   134a0:	e10ff06f          	j	12ab0 <_vfprintf_r+0xd18>
   134a4:	00600793          	li	a5,6
   134a8:	00030c93          	mv	s9,t1
   134ac:	0e67e6e3          	bltu	a5,t1,13d98 <_vfprintf_r+0x2000>
   134b0:	01612a23          	sw	s6,20(sp)
   134b4:	00012823          	sw	zero,16(sp)
   134b8:	000c8d13          	mv	s10,s9
   134bc:	00000613          	li	a2,0
   134c0:	00000313          	li	t1,0
   134c4:	02012223          	sw	zero,36(sp)
   134c8:	02012023          	sw	zero,32(sp)
   134cc:	00000a13          	li	s4,0
   134d0:	0000ec17          	auipc	s8,0xe
   134d4:	69cc0c13          	add	s8,s8,1692 # 21b6c <__clzsi2+0xf8>
   134d8:	afdfe06f          	j	11fd4 <_vfprintf_r+0x23c>
   134dc:	00800613          	li	a2,8
   134e0:	00000593          	li	a1,0
   134e4:	09810513          	add	a0,sp,152
   134e8:	03c12023          	sw	t3,32(sp)
   134ec:	01d12823          	sw	t4,16(sp)
   134f0:	985fd0ef          	jal	10e74 <memset>
   134f4:	01412783          	lw	a5,20(sp)
   134f8:	0ec10c13          	add	s8,sp,236
   134fc:	09810693          	add	a3,sp,152
   13500:	0007a603          	lw	a2,0(a5)
   13504:	000c0593          	mv	a1,s8
   13508:	00098513          	mv	a0,s3
   1350c:	55c090ef          	jal	1ca68 <_wcrtomb_r>
   13510:	fff00793          	li	a5,-1
   13514:	01012e83          	lw	t4,16(sp)
   13518:	02012e03          	lw	t3,32(sp)
   1351c:	00050d13          	mv	s10,a0
   13520:	00f51463          	bne	a0,a5,13528 <_vfprintf_r+0x1790>
   13524:	4980106f          	j	149bc <_vfprintf_r+0x2c24>
   13528:	fff54813          	not	a6,a0
   1352c:	41f85813          	sra	a6,a6,0x1f
   13530:	01057cb3          	and	s9,a0,a6
   13534:	97cff06f          	j	126b0 <_vfprintf_r+0x918>
   13538:	03412703          	lw	a4,52(sp)
   1353c:	03012783          	lw	a5,48(sp)
   13540:	00700693          	li	a3,7
   13544:	00e42023          	sw	a4,0(s0)
   13548:	0a412703          	lw	a4,164(sp)
   1354c:	00f484b3          	add	s1,s1,a5
   13550:	00f42223          	sw	a5,4(s0)
   13554:	00170713          	add	a4,a4,1
   13558:	0a912423          	sw	s1,168(sp)
   1355c:	0ae12223          	sw	a4,164(sp)
   13560:	00840413          	add	s0,s0,8
   13564:	a4e6d0e3          	bge	a3,a4,12fa4 <_vfprintf_r+0x120c>
   13568:	00812583          	lw	a1,8(sp)
   1356c:	0a010613          	add	a2,sp,160
   13570:	00098513          	mv	a0,s3
   13574:	02612223          	sw	t1,36(sp)
   13578:	03d12023          	sw	t4,32(sp)
   1357c:	6e8010ef          	jal	14c64 <__sprint_r>
   13580:	00050463          	beqz	a0,13588 <_vfprintf_r+0x17f0>
   13584:	ce1fe06f          	j	12264 <_vfprintf_r+0x4cc>
   13588:	07c12d03          	lw	s10,124(sp)
   1358c:	0a812483          	lw	s1,168(sp)
   13590:	02412303          	lw	t1,36(sp)
   13594:	02012e83          	lw	t4,32(sp)
   13598:	0ac10413          	add	s0,sp,172
   1359c:	a09ff06f          	j	12fa4 <_vfprintf_r+0x120c>
   135a0:	01412703          	lw	a4,20(sp)
   135a4:	010ef793          	and	a5,t4,16
   135a8:	00072d03          	lw	s10,0(a4)
   135ac:	00470713          	add	a4,a4,4
   135b0:	00e12a23          	sw	a4,20(sp)
   135b4:	08079863          	bnez	a5,13644 <_vfprintf_r+0x18ac>
   135b8:	040ef793          	and	a5,t4,64
   135bc:	08078063          	beqz	a5,1363c <_vfprintf_r+0x18a4>
   135c0:	010d1d13          	sll	s10,s10,0x10
   135c4:	010d5d13          	srl	s10,s10,0x10
   135c8:	00000c93          	li	s9,0
   135cc:	e31ff06f          	j	133fc <_vfprintf_r+0x1664>
   135d0:	00000d13          	li	s10,0
   135d4:	15010c13          	add	s8,sp,336
   135d8:	a2cff06f          	j	12804 <_vfprintf_r+0xa6c>
   135dc:	00812583          	lw	a1,8(sp)
   135e0:	0a010613          	add	a2,sp,160
   135e4:	00098513          	mv	a0,s3
   135e8:	03d12023          	sw	t4,32(sp)
   135ec:	678010ef          	jal	14c64 <__sprint_r>
   135f0:	00050463          	beqz	a0,135f8 <_vfprintf_r+0x1860>
   135f4:	c71fe06f          	j	12264 <_vfprintf_r+0x4cc>
   135f8:	0a812483          	lw	s1,168(sp)
   135fc:	0a412d03          	lw	s10,164(sp)
   13600:	02012e83          	lw	t4,32(sp)
   13604:	0ac10b13          	add	s6,sp,172
   13608:	f71fe06f          	j	12578 <_vfprintf_r+0x7e0>
   1360c:	00812583          	lw	a1,8(sp)
   13610:	0a010613          	add	a2,sp,160
   13614:	00098513          	mv	a0,s3
   13618:	03d12023          	sw	t4,32(sp)
   1361c:	648010ef          	jal	14c64 <__sprint_r>
   13620:	00050463          	beqz	a0,13628 <_vfprintf_r+0x1890>
   13624:	c41fe06f          	j	12264 <_vfprintf_r+0x4cc>
   13628:	0a812483          	lw	s1,168(sp)
   1362c:	0a412d03          	lw	s10,164(sp)
   13630:	02012e83          	lw	t4,32(sp)
   13634:	0ac10b13          	add	s6,sp,172
   13638:	f71fe06f          	j	125a8 <_vfprintf_r+0x810>
   1363c:	200ef793          	and	a5,t4,512
   13640:	76079663          	bnez	a5,13dac <_vfprintf_r+0x2014>
   13644:	00000c93          	li	s9,0
   13648:	db5ff06f          	j	133fc <_vfprintf_r+0x1664>
   1364c:	00000793          	li	a5,0
   13650:	15010b13          	add	s6,sp,336
   13654:	01212823          	sw	s2,16(sp)
   13658:	00078913          	mv	s2,a5
   1365c:	00098793          	mv	a5,s3
   13660:	04812823          	sw	s0,80(sp)
   13664:	000b0993          	mv	s3,s6
   13668:	03c12403          	lw	s0,60(sp)
   1366c:	40067493          	and	s1,a2,1024
   13670:	0ff00a13          	li	s4,255
   13674:	03c12023          	sw	t3,32(sp)
   13678:	02c12223          	sw	a2,36(sp)
   1367c:	04612223          	sw	t1,68(sp)
   13680:	00078b13          	mv	s6,a5
   13684:	0280006f          	j	136ac <_vfprintf_r+0x1914>
   13688:	00a00613          	li	a2,10
   1368c:	00000693          	li	a3,0
   13690:	000d0513          	mv	a0,s10
   13694:	000c8593          	mv	a1,s9
   13698:	3310a0ef          	jal	1e1c8 <__udivdi3>
   1369c:	6a0c8ee3          	beqz	s9,14558 <_vfprintf_r+0x27c0>
   136a0:	00050d13          	mv	s10,a0
   136a4:	00058c93          	mv	s9,a1
   136a8:	000c0993          	mv	s3,s8
   136ac:	00a00613          	li	a2,10
   136b0:	00000693          	li	a3,0
   136b4:	000d0513          	mv	a0,s10
   136b8:	000c8593          	mv	a1,s9
   136bc:	1b80b0ef          	jal	1e874 <__umoddi3>
   136c0:	03050513          	add	a0,a0,48
   136c4:	fea98fa3          	sb	a0,-1(s3)
   136c8:	fff98c13          	add	s8,s3,-1
   136cc:	00190913          	add	s2,s2,1
   136d0:	fa048ce3          	beqz	s1,13688 <_vfprintf_r+0x18f0>
   136d4:	00044783          	lbu	a5,0(s0)
   136d8:	faf918e3          	bne	s2,a5,13688 <_vfprintf_r+0x18f0>
   136dc:	fb4906e3          	beq	s2,s4,13688 <_vfprintf_r+0x18f0>
   136e0:	560c9ae3          	bnez	s9,14454 <_vfprintf_r+0x26bc>
   136e4:	00900793          	li	a5,9
   136e8:	57a7e6e3          	bltu	a5,s10,14454 <_vfprintf_r+0x26bc>
   136ec:	02412603          	lw	a2,36(sp)
   136f0:	15010793          	add	a5,sp,336
   136f4:	02812e23          	sw	s0,60(sp)
   136f8:	01212c23          	sw	s2,24(sp)
   136fc:	02012e03          	lw	t3,32(sp)
   13700:	01012903          	lw	s2,16(sp)
   13704:	04412303          	lw	t1,68(sp)
   13708:	05012403          	lw	s0,80(sp)
   1370c:	000b0993          	mv	s3,s6
   13710:	41878d33          	sub	s10,a5,s8
   13714:	00060e93          	mv	t4,a2
   13718:	8ecff06f          	j	12804 <_vfprintf_r+0xa6c>
   1371c:	00812583          	lw	a1,8(sp)
   13720:	0a010613          	add	a2,sp,160
   13724:	00098513          	mv	a0,s3
   13728:	04612e23          	sw	t1,92(sp)
   1372c:	05c12c23          	sw	t3,88(sp)
   13730:	05d12a23          	sw	t4,84(sp)
   13734:	05f12823          	sw	t6,80(sp)
   13738:	04512223          	sw	t0,68(sp)
   1373c:	528010ef          	jal	14c64 <__sprint_r>
   13740:	00050463          	beqz	a0,13748 <_vfprintf_r+0x19b0>
   13744:	b21fe06f          	j	12264 <_vfprintf_r+0x4cc>
   13748:	07714603          	lbu	a2,119(sp)
   1374c:	0a812483          	lw	s1,168(sp)
   13750:	05c12303          	lw	t1,92(sp)
   13754:	05812e03          	lw	t3,88(sp)
   13758:	05412e83          	lw	t4,84(sp)
   1375c:	05012f83          	lw	t6,80(sp)
   13760:	04412283          	lw	t0,68(sp)
   13764:	0ac10413          	add	s0,sp,172
   13768:	88dfe06f          	j	11ff4 <_vfprintf_r+0x25c>
   1376c:	02812883          	lw	a7,40(sp)
   13770:	02c12703          	lw	a4,44(sp)
   13774:	02612223          	sw	t1,36(sp)
   13778:	00088613          	mv	a2,a7
   1377c:	00088513          	mv	a0,a7
   13780:	00070693          	mv	a3,a4
   13784:	00070593          	mv	a1,a4
   13788:	03c12023          	sw	t3,32(sp)
   1378c:	01d12823          	sw	t4,16(sp)
   13790:	3dd0d0ef          	jal	2136c <__unorddf2>
   13794:	01012e83          	lw	t4,16(sp)
   13798:	02012e03          	lw	t3,32(sp)
   1379c:	02412303          	lw	t1,36(sp)
   137a0:	00050463          	beqz	a0,137a8 <_vfprintf_r+0x1a10>
   137a4:	0e00106f          	j	14884 <_vfprintf_r+0x2aec>
   137a8:	06100713          	li	a4,97
   137ac:	08ee0263          	beq	t3,a4,13830 <_vfprintf_r+0x1a98>
   137b0:	04100713          	li	a4,65
   137b4:	05800793          	li	a5,88
   137b8:	06ee0e63          	beq	t3,a4,13834 <_vfprintf_r+0x1a9c>
   137bc:	fff00713          	li	a4,-1
   137c0:	00e31463          	bne	t1,a4,137c8 <_vfprintf_r+0x1a30>
   137c4:	01c0106f          	j	147e0 <_vfprintf_r+0x2a48>
   137c8:	fdfe7713          	and	a4,t3,-33
   137cc:	04700693          	li	a3,71
   137d0:	00012823          	sw	zero,16(sp)
   137d4:	00d71663          	bne	a4,a3,137e0 <_vfprintf_r+0x1a48>
   137d8:	00031463          	bnez	t1,137e0 <_vfprintf_r+0x1a48>
   137dc:	00100313          	li	t1,1
   137e0:	100ee793          	or	a5,t4,256
   137e4:	00078b13          	mv	s6,a5
   137e8:	02c12783          	lw	a5,44(sp)
   137ec:	04012223          	sw	zero,68(sp)
   137f0:	00078493          	mv	s1,a5
   137f4:	0007da63          	bgez	a5,13808 <_vfprintf_r+0x1a70>
   137f8:	800004b7          	lui	s1,0x80000
   137fc:	00f4c4b3          	xor	s1,s1,a5
   13800:	02d00793          	li	a5,45
   13804:	04f12223          	sw	a5,68(sp)
   13808:	fbfe0713          	add	a4,t3,-65
   1380c:	02500693          	li	a3,37
   13810:	3ae6e463          	bltu	a3,a4,13bb8 <_vfprintf_r+0x1e20>
   13814:	0000e697          	auipc	a3,0xe
   13818:	76868693          	add	a3,a3,1896 # 21f7c <__clzsi2+0x508>
   1381c:	00271713          	sll	a4,a4,0x2
   13820:	00d70733          	add	a4,a4,a3
   13824:	00072703          	lw	a4,0(a4)
   13828:	00d70733          	add	a4,a4,a3
   1382c:	00070067          	jr	a4
   13830:	07800793          	li	a5,120
   13834:	03000713          	li	a4,48
   13838:	06e10c23          	sb	a4,120(sp)
   1383c:	06f10ca3          	sb	a5,121(sp)
   13840:	06300713          	li	a4,99
   13844:	00012823          	sw	zero,16(sp)
   13848:	002eee93          	or	t4,t4,2
   1384c:	0ec10c13          	add	s8,sp,236
   13850:	f86758e3          	bge	a4,t1,137e0 <_vfprintf_r+0x1a48>
   13854:	00130593          	add	a1,t1,1
   13858:	00098513          	mv	a0,s3
   1385c:	03c12023          	sw	t3,32(sp)
   13860:	01d12c23          	sw	t4,24(sp)
   13864:	00612823          	sw	t1,16(sp)
   13868:	d59fd0ef          	jal	115c0 <_malloc_r>
   1386c:	01012303          	lw	t1,16(sp)
   13870:	01812e83          	lw	t4,24(sp)
   13874:	02012e03          	lw	t3,32(sp)
   13878:	00050c13          	mv	s8,a0
   1387c:	00051463          	bnez	a0,13884 <_vfprintf_r+0x1aec>
   13880:	13c0106f          	j	149bc <_vfprintf_r+0x2c24>
   13884:	00a12823          	sw	a0,16(sp)
   13888:	f59ff06f          	j	137e0 <_vfprintf_r+0x1a48>
   1388c:	00098513          	mv	a0,s3
   13890:	f21fc0ef          	jal	107b0 <__sinit>
   13894:	00c12783          	lw	a5,12(sp)
   13898:	d60fe06f          	j	11df8 <_vfprintf_r+0x60>
   1389c:	00812583          	lw	a1,8(sp)
   138a0:	0a010613          	add	a2,sp,160
   138a4:	00098513          	mv	a0,s3
   138a8:	03d12023          	sw	t4,32(sp)
   138ac:	3b8010ef          	jal	14c64 <__sprint_r>
   138b0:	00050463          	beqz	a0,138b8 <_vfprintf_r+0x1b20>
   138b4:	9b1fe06f          	j	12264 <_vfprintf_r+0x4cc>
   138b8:	0a812483          	lw	s1,168(sp)
   138bc:	02012e83          	lw	t4,32(sp)
   138c0:	0ac10413          	add	s0,sp,172
   138c4:	9b0ff06f          	j	12a74 <_vfprintf_r+0xcdc>
   138c8:	00800613          	li	a2,8
   138cc:	00000593          	li	a1,0
   138d0:	09810513          	add	a0,sp,152
   138d4:	02612023          	sw	t1,32(sp)
   138d8:	01c12a23          	sw	t3,20(sp)
   138dc:	01d12823          	sw	t4,16(sp)
   138e0:	09812223          	sw	s8,132(sp)
   138e4:	d90fd0ef          	jal	10e74 <memset>
   138e8:	02012303          	lw	t1,32(sp)
   138ec:	01012e83          	lw	t4,16(sp)
   138f0:	01412e03          	lw	t3,20(sp)
   138f4:	3a0340e3          	bltz	t1,14494 <_vfprintf_r+0x26fc>
   138f8:	00000d13          	li	s10,0
   138fc:	01212823          	sw	s2,16(sp)
   13900:	000c0c93          	mv	s9,s8
   13904:	fff00493          	li	s1,-1
   13908:	000b0c13          	mv	s8,s6
   1390c:	000e8a13          	mv	s4,t4
   13910:	00040b13          	mv	s6,s0
   13914:	000d0913          	mv	s2,s10
   13918:	00030413          	mv	s0,t1
   1391c:	0300006f          	j	1394c <_vfprintf_r+0x1bb4>
   13920:	09810693          	add	a3,sp,152
   13924:	0ec10593          	add	a1,sp,236
   13928:	00098513          	mv	a0,s3
   1392c:	13c090ef          	jal	1ca68 <_wcrtomb_r>
   13930:	68950ae3          	beq	a0,s1,147c4 <_vfprintf_r+0x2a2c>
   13934:	00a907b3          	add	a5,s2,a0
   13938:	02f44263          	blt	s0,a5,1395c <_vfprintf_r+0x1bc4>
   1393c:	004d0d13          	add	s10,s10,4
   13940:	00879463          	bne	a5,s0,13948 <_vfprintf_r+0x1bb0>
   13944:	7990006f          	j	148dc <_vfprintf_r+0x2b44>
   13948:	00078913          	mv	s2,a5
   1394c:	08412783          	lw	a5,132(sp)
   13950:	01a787b3          	add	a5,a5,s10
   13954:	0007a603          	lw	a2,0(a5)
   13958:	fc0614e3          	bnez	a2,13920 <_vfprintf_r+0x1b88>
   1395c:	00090d13          	mv	s10,s2
   13960:	01412e03          	lw	t3,20(sp)
   13964:	01012903          	lw	s2,16(sp)
   13968:	000b0413          	mv	s0,s6
   1396c:	000a0e93          	mv	t4,s4
   13970:	000c0b13          	mv	s6,s8
   13974:	000c8c13          	mv	s8,s9
   13978:	340d0ce3          	beqz	s10,144d0 <_vfprintf_r+0x2738>
   1397c:	06300793          	li	a5,99
   13980:	59a7dee3          	bge	a5,s10,1471c <_vfprintf_r+0x2984>
   13984:	001d0593          	add	a1,s10,1
   13988:	00098513          	mv	a0,s3
   1398c:	01c12a23          	sw	t3,20(sp)
   13990:	01d12823          	sw	t4,16(sp)
   13994:	c2dfd0ef          	jal	115c0 <_malloc_r>
   13998:	01012e83          	lw	t4,16(sp)
   1399c:	01412e03          	lw	t3,20(sp)
   139a0:	00050c13          	mv	s8,a0
   139a4:	620500e3          	beqz	a0,147c4 <_vfprintf_r+0x2a2c>
   139a8:	00a12823          	sw	a0,16(sp)
   139ac:	00800613          	li	a2,8
   139b0:	00000593          	li	a1,0
   139b4:	09810513          	add	a0,sp,152
   139b8:	03c12023          	sw	t3,32(sp)
   139bc:	01d12a23          	sw	t4,20(sp)
   139c0:	cb4fd0ef          	jal	10e74 <memset>
   139c4:	09810713          	add	a4,sp,152
   139c8:	000d0693          	mv	a3,s10
   139cc:	08410613          	add	a2,sp,132
   139d0:	000c0593          	mv	a1,s8
   139d4:	00098513          	mv	a0,s3
   139d8:	1b4090ef          	jal	1cb8c <_wcsrtombs_r>
   139dc:	01412e83          	lw	t4,20(sp)
   139e0:	02012e03          	lw	t3,32(sp)
   139e4:	00ad0463          	beq	s10,a0,139ec <_vfprintf_r+0x1c54>
   139e8:	0240106f          	j	14a0c <_vfprintf_r+0x2c74>
   139ec:	01ac0733          	add	a4,s8,s10
   139f0:	00070023          	sb	zero,0(a4)
   139f4:	07714603          	lbu	a2,119(sp)
   139f8:	fffd4813          	not	a6,s10
   139fc:	41f85813          	sra	a6,a6,0x1f
   13a00:	01612a23          	sw	s6,20(sp)
   13a04:	02012223          	sw	zero,36(sp)
   13a08:	02012023          	sw	zero,32(sp)
   13a0c:	010d7cb3          	and	s9,s10,a6
   13a10:	00000313          	li	t1,0
   13a14:	00000a13          	li	s4,0
   13a18:	00061463          	bnez	a2,13a20 <_vfprintf_r+0x1c88>
   13a1c:	db8fe06f          	j	11fd4 <_vfprintf_r+0x23c>
   13a20:	9d5fe06f          	j	123f4 <_vfprintf_r+0x65c>
   13a24:	00048e93          	mv	t4,s1
   13a28:	000a0293          	mv	t0,s4
   13a2c:	00070493          	mv	s1,a4
   13a30:	01a484b3          	add	s1,s1,s10
   13a34:	00178793          	add	a5,a5,1
   13a38:	00542023          	sw	t0,0(s0)
   13a3c:	e48fe06f          	j	12084 <_vfprintf_r+0x2ec>
   13a40:	01412783          	lw	a5,20(sp)
   13a44:	00c12703          	lw	a4,12(sp)
   13a48:	0007a783          	lw	a5,0(a5)
   13a4c:	00e7a023          	sw	a4,0(a5)
   13a50:	fadfe06f          	j	129fc <_vfprintf_r+0xc64>
   13a54:	02012e83          	lw	t4,32(sp)
   13a58:	00040293          	mv	t0,s0
   13a5c:	000a0413          	mv	s0,s4
   13a60:	008484b3          	add	s1,s1,s0
   13a64:	001d0d13          	add	s10,s10,1
   13a68:	005b2023          	sw	t0,0(s6)
   13a6c:	b7dfe06f          	j	125e8 <_vfprintf_r+0x850>
   13a70:	03412703          	lw	a4,52(sp)
   13a74:	03012783          	lw	a5,48(sp)
   13a78:	00700613          	li	a2,7
   13a7c:	00e42023          	sw	a4,0(s0)
   13a80:	0a412703          	lw	a4,164(sp)
   13a84:	009784b3          	add	s1,a5,s1
   13a88:	00f42223          	sw	a5,4(s0)
   13a8c:	00170713          	add	a4,a4,1
   13a90:	0a912423          	sw	s1,168(sp)
   13a94:	0ae12223          	sw	a4,164(sp)
   13a98:	00840413          	add	s0,s0,8
   13a9c:	3ae64463          	blt	a2,a4,13e44 <_vfprintf_r+0x20ac>
   13aa0:	3e06cee3          	bltz	a3,1469c <_vfprintf_r+0x2904>
   13aa4:	01812783          	lw	a5,24(sp)
   13aa8:	00170713          	add	a4,a4,1
   13aac:	01842023          	sw	s8,0(s0)
   13ab0:	009784b3          	add	s1,a5,s1
   13ab4:	00f42223          	sw	a5,4(s0)
   13ab8:	0a912423          	sw	s1,168(sp)
   13abc:	0ae12223          	sw	a4,164(sp)
   13ac0:	00700793          	li	a5,7
   13ac4:	00e7c463          	blt	a5,a4,13acc <_vfprintf_r+0x1d34>
   13ac8:	dd0fe06f          	j	12098 <_vfprintf_r+0x300>
   13acc:	b61fe06f          	j	1262c <_vfprintf_r+0x894>
   13ad0:	01000613          	li	a2,16
   13ad4:	0a412683          	lw	a3,164(sp)
   13ad8:	0000e297          	auipc	t0,0xe
   13adc:	53c28293          	add	t0,t0,1340 # 22014 <zeroes.0>
   13ae0:	09665463          	bge	a2,s6,13b68 <_vfprintf_r+0x1dd0>
   13ae4:	00040793          	mv	a5,s0
   13ae8:	00048713          	mv	a4,s1
   13aec:	00812403          	lw	s0,8(sp)
   13af0:	01000893          	li	a7,16
   13af4:	00700d13          	li	s10,7
   13af8:	05d12223          	sw	t4,68(sp)
   13afc:	00028493          	mv	s1,t0
   13b00:	00c0006f          	j	13b0c <_vfprintf_r+0x1d74>
   13b04:	ff0b0b13          	add	s6,s6,-16
   13b08:	0568d863          	bge	a7,s6,13b58 <_vfprintf_r+0x1dc0>
   13b0c:	01070713          	add	a4,a4,16
   13b10:	00168693          	add	a3,a3,1
   13b14:	0097a023          	sw	s1,0(a5)
   13b18:	0117a223          	sw	a7,4(a5)
   13b1c:	0ae12423          	sw	a4,168(sp)
   13b20:	0ad12223          	sw	a3,164(sp)
   13b24:	00878793          	add	a5,a5,8
   13b28:	fcdd5ee3          	bge	s10,a3,13b04 <_vfprintf_r+0x1d6c>
   13b2c:	0a010613          	add	a2,sp,160
   13b30:	00040593          	mv	a1,s0
   13b34:	00098513          	mv	a0,s3
   13b38:	12c010ef          	jal	14c64 <__sprint_r>
   13b3c:	00050463          	beqz	a0,13b44 <_vfprintf_r+0x1dac>
   13b40:	f24fe06f          	j	12264 <_vfprintf_r+0x4cc>
   13b44:	0a812703          	lw	a4,168(sp)
   13b48:	0a412683          	lw	a3,164(sp)
   13b4c:	0ac10793          	add	a5,sp,172
   13b50:	01000893          	li	a7,16
   13b54:	fb1ff06f          	j	13b04 <_vfprintf_r+0x1d6c>
   13b58:	04412e83          	lw	t4,68(sp)
   13b5c:	00048293          	mv	t0,s1
   13b60:	00078413          	mv	s0,a5
   13b64:	00070493          	mv	s1,a4
   13b68:	016484b3          	add	s1,s1,s6
   13b6c:	00168693          	add	a3,a3,1
   13b70:	00542023          	sw	t0,0(s0)
   13b74:	01642223          	sw	s6,4(s0)
   13b78:	0a912423          	sw	s1,168(sp)
   13b7c:	0ad12223          	sw	a3,164(sp)
   13b80:	00700713          	li	a4,7
   13b84:	00840413          	add	s0,s0,8
   13b88:	bed75c63          	bge	a4,a3,12f80 <_vfprintf_r+0x11e8>
   13b8c:	00812583          	lw	a1,8(sp)
   13b90:	0a010613          	add	a2,sp,160
   13b94:	00098513          	mv	a0,s3
   13b98:	05d12223          	sw	t4,68(sp)
   13b9c:	0c8010ef          	jal	14c64 <__sprint_r>
   13ba0:	00050463          	beqz	a0,13ba8 <_vfprintf_r+0x1e10>
   13ba4:	ec0fe06f          	j	12264 <_vfprintf_r+0x4cc>
   13ba8:	0a812483          	lw	s1,168(sp)
   13bac:	04412e83          	lw	t4,68(sp)
   13bb0:	0ac10413          	add	s0,sp,172
   13bb4:	bccff06f          	j	12f80 <_vfprintf_r+0x11e8>
   13bb8:	02812703          	lw	a4,40(sp)
   13bbc:	09810893          	add	a7,sp,152
   13bc0:	08410813          	add	a6,sp,132
   13bc4:	00070513          	mv	a0,a4
   13bc8:	00050593          	mv	a1,a0
   13bcc:	00030713          	mv	a4,t1
   13bd0:	07c10793          	add	a5,sp,124
   13bd4:	00200693          	li	a3,2
   13bd8:	00048613          	mv	a2,s1
   13bdc:	00098513          	mv	a0,s3
   13be0:	03c12223          	sw	t3,36(sp)
   13be4:	03d12023          	sw	t4,32(sp)
   13be8:	00612c23          	sw	t1,24(sp)
   13bec:	7b5040ef          	jal	18ba0 <_dtoa_r>
   13bf0:	02012e83          	lw	t4,32(sp)
   13bf4:	01812303          	lw	t1,24(sp)
   13bf8:	02412e03          	lw	t3,36(sp)
   13bfc:	001ef713          	and	a4,t4,1
   13c00:	00050c13          	mv	s8,a0
   13c04:	1a0712e3          	bnez	a4,145a8 <_vfprintf_r+0x2810>
   13c08:	09812783          	lw	a5,152(sp)
   13c0c:	07c12a03          	lw	s4,124(sp)
   13c10:	40a787b3          	sub	a5,a5,a0
   13c14:	00f12c23          	sw	a5,24(sp)
   13c18:	ffd00713          	li	a4,-3
   13c1c:	00ea4463          	blt	s4,a4,13c24 <_vfprintf_r+0x1e8c>
   13c20:	5b435663          	bge	t1,s4,141cc <_vfprintf_r+0x2434>
   13c24:	ffee0e13          	add	t3,t3,-2
   13c28:	fffa0d13          	add	s10,s4,-1
   13c2c:	07a12e23          	sw	s10,124(sp)
   13c30:	0ffe7693          	zext.b	a3,t3
   13c34:	00000613          	li	a2,0
   13c38:	08d10423          	sb	a3,136(sp)
   13c3c:	02b00693          	li	a3,43
   13c40:	000d5863          	bgez	s10,13c50 <_vfprintf_r+0x1eb8>
   13c44:	00100713          	li	a4,1
   13c48:	41470d33          	sub	s10,a4,s4
   13c4c:	02d00693          	li	a3,45
   13c50:	08d104a3          	sb	a3,137(sp)
   13c54:	00900693          	li	a3,9
   13c58:	33a6d8e3          	bge	a3,s10,14788 <_vfprintf_r+0x29f0>
   13c5c:	000c0793          	mv	a5,s8
   13c60:	09f10493          	add	s1,sp,159
   13c64:	03212023          	sw	s2,32(sp)
   13c68:	00040c13          	mv	s8,s0
   13c6c:	06300a13          	li	s4,99
   13c70:	000d0413          	mv	s0,s10
   13c74:	03d12223          	sw	t4,36(sp)
   13c78:	05c12023          	sw	t3,64(sp)
   13c7c:	00048913          	mv	s2,s1
   13c80:	00098c93          	mv	s9,s3
   13c84:	00078d13          	mv	s10,a5
   13c88:	00a00593          	li	a1,10
   13c8c:	00040513          	mv	a0,s0
   13c90:	5b50d0ef          	jal	21a44 <__modsi3>
   13c94:	03050713          	add	a4,a0,48
   13c98:	00090b13          	mv	s6,s2
   13c9c:	00040513          	mv	a0,s0
   13ca0:	feeb0fa3          	sb	a4,-1(s6)
   13ca4:	00a00593          	li	a1,10
   13ca8:	00040993          	mv	s3,s0
   13cac:	5150d0ef          	jal	219c0 <__divsi3>
   13cb0:	fff90913          	add	s2,s2,-1
   13cb4:	00050413          	mv	s0,a0
   13cb8:	fd3a48e3          	blt	s4,s3,13c88 <_vfprintf_r+0x1ef0>
   13cbc:	000c8993          	mv	s3,s9
   13cc0:	03050713          	add	a4,a0,48
   13cc4:	00090c93          	mv	s9,s2
   13cc8:	ffeb0693          	add	a3,s6,-2
   13ccc:	feec8fa3          	sb	a4,-1(s9)
   13cd0:	000c0413          	mv	s0,s8
   13cd4:	02412e83          	lw	t4,36(sp)
   13cd8:	04012e03          	lw	t3,64(sp)
   13cdc:	02012903          	lw	s2,32(sp)
   13ce0:	000d0c13          	mv	s8,s10
   13ce4:	4c96f6e3          	bgeu	a3,s1,149b0 <_vfprintf_r+0x2c18>
   13ce8:	08a10713          	add	a4,sp,138
   13cec:	0006c783          	lbu	a5,0(a3)
   13cf0:	00168693          	add	a3,a3,1
   13cf4:	00170713          	add	a4,a4,1
   13cf8:	fef70fa3          	sb	a5,-1(a4)
   13cfc:	fe9698e3          	bne	a3,s1,13cec <_vfprintf_r+0x1f54>
   13d00:	15010793          	add	a5,sp,336
   13d04:	41678633          	sub	a2,a5,s6
   13d08:	f5360793          	add	a5,a2,-173
   13d0c:	04f12023          	sw	a5,64(sp)
   13d10:	01812783          	lw	a5,24(sp)
   13d14:	04012683          	lw	a3,64(sp)
   13d18:	00100713          	li	a4,1
   13d1c:	00d78d33          	add	s10,a5,a3
   13d20:	28f75ce3          	bge	a4,a5,147b8 <_vfprintf_r+0x2a20>
   13d24:	03012783          	lw	a5,48(sp)
   13d28:	00fd0d33          	add	s10,s10,a5
   13d2c:	fffd4813          	not	a6,s10
   13d30:	bffeff13          	and	t5,t4,-1025
   13d34:	41f85813          	sra	a6,a6,0x1f
   13d38:	100f6e93          	or	t4,t5,256
   13d3c:	010d7cb3          	and	s9,s10,a6
   13d40:	02012223          	sw	zero,36(sp)
   13d44:	02012023          	sw	zero,32(sp)
   13d48:	00000a13          	li	s4,0
   13d4c:	04412783          	lw	a5,68(sp)
   13d50:	46079263          	bnez	a5,141b4 <_vfprintf_r+0x241c>
   13d54:	07714603          	lbu	a2,119(sp)
   13d58:	00000313          	li	t1,0
   13d5c:	00061463          	bnez	a2,13d64 <_vfprintf_r+0x1fcc>
   13d60:	a74fe06f          	j	11fd4 <_vfprintf_r+0x23c>
   13d64:	e90fe06f          	j	123f4 <_vfprintf_r+0x65c>
   13d68:	00812583          	lw	a1,8(sp)
   13d6c:	0a010613          	add	a2,sp,160
   13d70:	00098513          	mv	a0,s3
   13d74:	03d12023          	sw	t4,32(sp)
   13d78:	6ed000ef          	jal	14c64 <__sprint_r>
   13d7c:	00050463          	beqz	a0,13d84 <_vfprintf_r+0x1fec>
   13d80:	ce4fe06f          	j	12264 <_vfprintf_r+0x4cc>
   13d84:	07c12683          	lw	a3,124(sp)
   13d88:	0a812483          	lw	s1,168(sp)
   13d8c:	02012e83          	lw	t4,32(sp)
   13d90:	0ac10413          	add	s0,sp,172
   13d94:	ce0ff06f          	j	13274 <_vfprintf_r+0x14dc>
   13d98:	00600c93          	li	s9,6
   13d9c:	f14ff06f          	j	134b0 <_vfprintf_r+0x1718>
   13da0:	0ffd7d13          	zext.b	s10,s10
   13da4:	00000c93          	li	s9,0
   13da8:	bd5fe06f          	j	1297c <_vfprintf_r+0xbe4>
   13dac:	0ffd7d13          	zext.b	s10,s10
   13db0:	00000c93          	li	s9,0
   13db4:	e48ff06f          	j	133fc <_vfprintf_r+0x1664>
   13db8:	018d1d13          	sll	s10,s10,0x18
   13dbc:	418d5d13          	sra	s10,s10,0x18
   13dc0:	41fd5c93          	sra	s9,s10,0x1f
   13dc4:	000c8793          	mv	a5,s9
   13dc8:	b39fe06f          	j	12900 <_vfprintf_r+0xb68>
   13dcc:	01412783          	lw	a5,20(sp)
   13dd0:	00c12703          	lw	a4,12(sp)
   13dd4:	0007a783          	lw	a5,0(a5)
   13dd8:	00e79023          	sh	a4,0(a5)
   13ddc:	c21fe06f          	j	129fc <_vfprintf_r+0xc64>
   13de0:	000c0513          	mv	a0,s8
   13de4:	05d12223          	sw	t4,68(sp)
   13de8:	7ec040ef          	jal	185d4 <strlen>
   13dec:	07714603          	lbu	a2,119(sp)
   13df0:	fff54813          	not	a6,a0
   13df4:	41f85813          	sra	a6,a6,0x1f
   13df8:	01612a23          	sw	s6,20(sp)
   13dfc:	02012223          	sw	zero,36(sp)
   13e00:	02012023          	sw	zero,32(sp)
   13e04:	00012823          	sw	zero,16(sp)
   13e08:	04412e83          	lw	t4,68(sp)
   13e0c:	00050d13          	mv	s10,a0
   13e10:	01057cb3          	and	s9,a0,a6
   13e14:	00000313          	li	t1,0
   13e18:	07300e13          	li	t3,115
   13e1c:	00061463          	bnez	a2,13e24 <_vfprintf_r+0x208c>
   13e20:	9b4fe06f          	j	11fd4 <_vfprintf_r+0x23c>
   13e24:	dd0fe06f          	j	123f4 <_vfprintf_r+0x65c>
   13e28:	00812583          	lw	a1,8(sp)
   13e2c:	0a010613          	add	a2,sp,160
   13e30:	00098513          	mv	a0,s3
   13e34:	631000ef          	jal	14c64 <__sprint_r>
   13e38:	00051463          	bnez	a0,13e40 <_vfprintf_r+0x20a8>
   13e3c:	be8fe06f          	j	12224 <_vfprintf_r+0x48c>
   13e40:	c38fe06f          	j	12278 <_vfprintf_r+0x4e0>
   13e44:	00812583          	lw	a1,8(sp)
   13e48:	0a010613          	add	a2,sp,160
   13e4c:	00098513          	mv	a0,s3
   13e50:	03d12023          	sw	t4,32(sp)
   13e54:	611000ef          	jal	14c64 <__sprint_r>
   13e58:	00050463          	beqz	a0,13e60 <_vfprintf_r+0x20c8>
   13e5c:	c08fe06f          	j	12264 <_vfprintf_r+0x4cc>
   13e60:	07c12683          	lw	a3,124(sp)
   13e64:	0a812483          	lw	s1,168(sp)
   13e68:	0a412703          	lw	a4,164(sp)
   13e6c:	02012e83          	lw	t4,32(sp)
   13e70:	0ac10413          	add	s0,sp,172
   13e74:	c2dff06f          	j	13aa0 <_vfprintf_r+0x1d08>
   13e78:	05862503          	lw	a0,88(a2)
   13e7c:	00f12623          	sw	a5,12(sp)
   13e80:	ff1fc0ef          	jal	10e70 <__retarget_lock_release_recursive>
   13e84:	00c12783          	lw	a5,12(sp)
   13e88:	ab8fe06f          	j	12140 <_vfprintf_r+0x3a8>
   13e8c:	00130a13          	add	s4,t1,1
   13e90:	00200693          	li	a3,2
   13e94:	02812703          	lw	a4,40(sp)
   13e98:	09810893          	add	a7,sp,152
   13e9c:	08410813          	add	a6,sp,132
   13ea0:	00070513          	mv	a0,a4
   13ea4:	00050593          	mv	a1,a0
   13ea8:	000a0713          	mv	a4,s4
   13eac:	07c10793          	add	a5,sp,124
   13eb0:	00048613          	mv	a2,s1
   13eb4:	00098513          	mv	a0,s3
   13eb8:	02612223          	sw	t1,36(sp)
   13ebc:	03c12023          	sw	t3,32(sp)
   13ec0:	01d12c23          	sw	t4,24(sp)
   13ec4:	4dd040ef          	jal	18ba0 <_dtoa_r>
   13ec8:	02012e03          	lw	t3,32(sp)
   13ecc:	04600693          	li	a3,70
   13ed0:	01812e83          	lw	t4,24(sp)
   13ed4:	fdfe7d13          	and	s10,t3,-33
   13ed8:	02412303          	lw	t1,36(sp)
   13edc:	00050c13          	mv	s8,a0
   13ee0:	01450733          	add	a4,a0,s4
   13ee4:	34dd14e3          	bne	s10,a3,14a2c <_vfprintf_r+0x2c94>
   13ee8:	000c4603          	lbu	a2,0(s8)
   13eec:	03000693          	li	a3,48
   13ef0:	6cd60263          	beq	a2,a3,145b4 <_vfprintf_r+0x281c>
   13ef4:	07c12683          	lw	a3,124(sp)
   13ef8:	00d70733          	add	a4,a4,a3
   13efc:	02812683          	lw	a3,40(sp)
   13f00:	00048593          	mv	a1,s1
   13f04:	00000613          	li	a2,0
   13f08:	00068513          	mv	a0,a3
   13f0c:	00000693          	li	a3,0
   13f10:	04e12823          	sw	a4,80(sp)
   13f14:	02612223          	sw	t1,36(sp)
   13f18:	03c12023          	sw	t3,32(sp)
   13f1c:	01d12c23          	sw	t4,24(sp)
   13f20:	1200c0ef          	jal	20040 <__eqdf2>
   13f24:	01812e83          	lw	t4,24(sp)
   13f28:	02012e03          	lw	t3,32(sp)
   13f2c:	02412303          	lw	t1,36(sp)
   13f30:	05012703          	lw	a4,80(sp)
   13f34:	62050863          	beqz	a0,14564 <_vfprintf_r+0x27cc>
   13f38:	09812783          	lw	a5,152(sp)
   13f3c:	00e7fe63          	bgeu	a5,a4,13f58 <_vfprintf_r+0x21c0>
   13f40:	03000613          	li	a2,48
   13f44:	00178693          	add	a3,a5,1
   13f48:	08d12c23          	sw	a3,152(sp)
   13f4c:	00c78023          	sb	a2,0(a5)
   13f50:	09812783          	lw	a5,152(sp)
   13f54:	fee7e8e3          	bltu	a5,a4,13f44 <_vfprintf_r+0x21ac>
   13f58:	07c12a03          	lw	s4,124(sp)
   13f5c:	418787b3          	sub	a5,a5,s8
   13f60:	04700713          	li	a4,71
   13f64:	00f12c23          	sw	a5,24(sp)
   13f68:	caed08e3          	beq	s10,a4,13c18 <_vfprintf_r+0x1e80>
   13f6c:	04600713          	li	a4,70
   13f70:	68ed0863          	beq	s10,a4,14600 <_vfprintf_r+0x2868>
   13f74:	fffa0d13          	add	s10,s4,-1
   13f78:	cb5ff06f          	j	13c2c <_vfprintf_r+0x1e94>
   13f7c:	02812703          	lw	a4,40(sp)
   13f80:	07c10613          	add	a2,sp,124
   13f84:	00048593          	mv	a1,s1
   13f88:	00070513          	mv	a0,a4
   13f8c:	02612223          	sw	t1,36(sp)
   13f90:	03c12023          	sw	t3,32(sp)
   13f94:	01d12c23          	sw	t4,24(sp)
   13f98:	0f5040ef          	jal	1888c <frexp>
   13f9c:	00010717          	auipc	a4,0x10
   13fa0:	90470713          	add	a4,a4,-1788 # 238a0 <__SDATA_BEGIN__+0x8>
   13fa4:	00072603          	lw	a2,0(a4)
   13fa8:	00472683          	lw	a3,4(a4)
   13fac:	3280c0ef          	jal	202d4 <__muldf3>
   13fb0:	00000613          	li	a2,0
   13fb4:	00000693          	li	a3,0
   13fb8:	00050a13          	mv	s4,a0
   13fbc:	00058d13          	mv	s10,a1
   13fc0:	0800c0ef          	jal	20040 <__eqdf2>
   13fc4:	01812e83          	lw	t4,24(sp)
   13fc8:	02012e03          	lw	t3,32(sp)
   13fcc:	02412303          	lw	t1,36(sp)
   13fd0:	00051663          	bnez	a0,13fdc <_vfprintf_r+0x2244>
   13fd4:	00100713          	li	a4,1
   13fd8:	06e12e23          	sw	a4,124(sp)
   13fdc:	0000e797          	auipc	a5,0xe
   13fe0:	b7c78793          	add	a5,a5,-1156 # 21b58 <__clzsi2+0xe4>
   13fe4:	06100713          	li	a4,97
   13fe8:	02f12023          	sw	a5,32(sp)
   13fec:	00ee1863          	bne	t3,a4,13ffc <_vfprintf_r+0x2264>
   13ff0:	0000e797          	auipc	a5,0xe
   13ff4:	b5478793          	add	a5,a5,-1196 # 21b44 <__clzsi2+0xd0>
   13ff8:	02f12023          	sw	a5,32(sp)
   13ffc:	00010717          	auipc	a4,0x10
   14000:	8ac70713          	add	a4,a4,-1876 # 238a8 <__SDATA_BEGIN__+0x10>
   14004:	00072783          	lw	a5,0(a4)
   14008:	00472803          	lw	a6,4(a4)
   1400c:	000c0493          	mv	s1,s8
   14010:	00f12c23          	sw	a5,24(sp)
   14014:	000d0793          	mv	a5,s10
   14018:	03212223          	sw	s2,36(sp)
   1401c:	000c0d13          	mv	s10,s8
   14020:	02012903          	lw	s2,32(sp)
   14024:	00098c13          	mv	s8,s3
   14028:	01012e23          	sw	a6,28(sp)
   1402c:	fff30b13          	add	s6,t1,-1
   14030:	fff00c93          	li	s9,-1
   14034:	05d12023          	sw	t4,64(sp)
   14038:	05c12823          	sw	t3,80(sp)
   1403c:	04812a23          	sw	s0,84(sp)
   14040:	00078993          	mv	s3,a5
   14044:	01c0006f          	j	14060 <_vfprintf_r+0x22c8>
   14048:	00000613          	li	a2,0
   1404c:	00000693          	li	a3,0
   14050:	fffb0413          	add	s0,s6,-1
   14054:	7ed0b0ef          	jal	20040 <__eqdf2>
   14058:	0a0504e3          	beqz	a0,14900 <_vfprintf_r+0x2b68>
   1405c:	00040b13          	mv	s6,s0
   14060:	01812603          	lw	a2,24(sp)
   14064:	01c12683          	lw	a3,28(sp)
   14068:	000a0513          	mv	a0,s4
   1406c:	00098593          	mv	a1,s3
   14070:	2640c0ef          	jal	202d4 <__muldf3>
   14074:	00058a13          	mv	s4,a1
   14078:	00050993          	mv	s3,a0
   1407c:	3440d0ef          	jal	213c0 <__fixdfsi>
   14080:	00050413          	mv	s0,a0
   14084:	3c00d0ef          	jal	21444 <__floatsidf>
   14088:	00050613          	mv	a2,a0
   1408c:	00058693          	mv	a3,a1
   14090:	00098513          	mv	a0,s3
   14094:	000a0593          	mv	a1,s4
   14098:	1cd0c0ef          	jal	20a64 <__subdf3>
   1409c:	00890733          	add	a4,s2,s0
   140a0:	00074703          	lbu	a4,0(a4)
   140a4:	00048813          	mv	a6,s1
   140a8:	00050a13          	mv	s4,a0
   140ac:	00e48023          	sb	a4,0(s1) # 80000000 <__BSS_END__+0x7ffdc0f0>
   140b0:	00058993          	mv	s3,a1
   140b4:	00148493          	add	s1,s1,1
   140b8:	f99b18e3          	bne	s6,s9,14048 <_vfprintf_r+0x22b0>
   140bc:	0000f697          	auipc	a3,0xf
   140c0:	7f468693          	add	a3,a3,2036 # 238b0 <__SDATA_BEGIN__+0x18>
   140c4:	0006a303          	lw	t1,0(a3)
   140c8:	0046a383          	lw	t2,4(a3)
   140cc:	05012e03          	lw	t3,80(sp)
   140d0:	00030613          	mv	a2,t1
   140d4:	00038693          	mv	a3,t2
   140d8:	01012c23          	sw	a6,24(sp)
   140dc:	02412903          	lw	s2,36(sp)
   140e0:	000c0993          	mv	s3,s8
   140e4:	03c12223          	sw	t3,36(sp)
   140e8:	000d0c13          	mv	s8,s10
   140ec:	00058d13          	mv	s10,a1
   140f0:	7dd0b0ef          	jal	200cc <__gedf2>
   140f4:	0000f797          	auipc	a5,0xf
   140f8:	7bc78793          	add	a5,a5,1980 # 238b0 <__SDATA_BEGIN__+0x18>
   140fc:	00040b13          	mv	s6,s0
   14100:	0007a303          	lw	t1,0(a5)
   14104:	05412403          	lw	s0,84(sp)
   14108:	0047a383          	lw	t2,4(a5)
   1410c:	01812803          	lw	a6,24(sp)
   14110:	02412e03          	lw	t3,36(sp)
   14114:	04012e83          	lw	t4,64(sp)
   14118:	0aa05ce3          	blez	a0,149d0 <_vfprintf_r+0x2c38>
   1411c:	02012783          	lw	a5,32(sp)
   14120:	09012c23          	sw	a6,152(sp)
   14124:	fff4c603          	lbu	a2,-1(s1)
   14128:	00f7c583          	lbu	a1,15(a5)
   1412c:	00048693          	mv	a3,s1
   14130:	02b61063          	bne	a2,a1,14150 <_vfprintf_r+0x23b8>
   14134:	03000513          	li	a0,48
   14138:	fea68fa3          	sb	a0,-1(a3)
   1413c:	09812683          	lw	a3,152(sp)
   14140:	fff68793          	add	a5,a3,-1
   14144:	08f12c23          	sw	a5,152(sp)
   14148:	fff6c603          	lbu	a2,-1(a3)
   1414c:	feb606e3          	beq	a2,a1,14138 <_vfprintf_r+0x23a0>
   14150:	00160593          	add	a1,a2,1
   14154:	03900513          	li	a0,57
   14158:	0ff5f593          	zext.b	a1,a1
   1415c:	04a60463          	beq	a2,a0,141a4 <_vfprintf_r+0x240c>
   14160:	feb68fa3          	sb	a1,-1(a3)
   14164:	00048793          	mv	a5,s1
   14168:	07c12a03          	lw	s4,124(sp)
   1416c:	418787b3          	sub	a5,a5,s8
   14170:	06100613          	li	a2,97
   14174:	fffa0d13          	add	s10,s4,-1
   14178:	00f12c23          	sw	a5,24(sp)
   1417c:	07a12e23          	sw	s10,124(sp)
   14180:	07000693          	li	a3,112
   14184:	00ce0663          	beq	t3,a2,14190 <_vfprintf_r+0x23f8>
   14188:	05000693          	li	a3,80
   1418c:	04100e13          	li	t3,65
   14190:	00100613          	li	a2,1
   14194:	aa5ff06f          	j	13c38 <_vfprintf_r+0x1ea0>
   14198:	00030a13          	mv	s4,t1
   1419c:	00300693          	li	a3,3
   141a0:	cf5ff06f          	j	13e94 <_vfprintf_r+0x20fc>
   141a4:	02012783          	lw	a5,32(sp)
   141a8:	00a7c583          	lbu	a1,10(a5)
   141ac:	feb68fa3          	sb	a1,-1(a3)
   141b0:	fb5ff06f          	j	14164 <_vfprintf_r+0x23cc>
   141b4:	02d00713          	li	a4,45
   141b8:	06e10ba3          	sb	a4,119(sp)
   141bc:	02d00613          	li	a2,45
   141c0:	00000313          	li	t1,0
   141c4:	001c8c93          	add	s9,s9,1
   141c8:	e0dfd06f          	j	11fd4 <_vfprintf_r+0x23c>
   141cc:	01812783          	lw	a5,24(sp)
   141d0:	46fa4063          	blt	s4,a5,14630 <_vfprintf_r+0x2898>
   141d4:	001ef713          	and	a4,t4,1
   141d8:	000a0d13          	mv	s10,s4
   141dc:	00070663          	beqz	a4,141e8 <_vfprintf_r+0x2450>
   141e0:	03012783          	lw	a5,48(sp)
   141e4:	00fa0d33          	add	s10,s4,a5
   141e8:	400eff13          	and	t5,t4,1024
   141ec:	000f0463          	beqz	t5,141f4 <_vfprintf_r+0x245c>
   141f0:	5f404e63          	bgtz	s4,147ec <_vfprintf_r+0x2a54>
   141f4:	fffd4813          	not	a6,s10
   141f8:	41f85813          	sra	a6,a6,0x1f
   141fc:	010d7cb3          	and	s9,s10,a6
   14200:	06700e13          	li	t3,103
   14204:	000b0e93          	mv	t4,s6
   14208:	02012223          	sw	zero,36(sp)
   1420c:	02012023          	sw	zero,32(sp)
   14210:	b3dff06f          	j	13d4c <_vfprintf_r+0x1fb4>
   14214:	02d00793          	li	a5,45
   14218:	06f10ba3          	sb	a5,119(sp)
   1421c:	02d00613          	li	a2,45
   14220:	998fe06f          	j	123b8 <_vfprintf_r+0x620>
   14224:	01812783          	lw	a5,24(sp)
   14228:	02012a03          	lw	s4,32(sp)
   1422c:	05212823          	sw	s2,80(sp)
   14230:	00fc07b3          	add	a5,s8,a5
   14234:	05712c23          	sw	s7,88(sp)
   14238:	05912e23          	sw	s9,92(sp)
   1423c:	00040713          	mv	a4,s0
   14240:	04f12223          	sw	a5,68(sp)
   14244:	02412403          	lw	s0,36(sp)
   14248:	05d12a23          	sw	t4,84(sp)
   1424c:	03812223          	sw	s8,36(sp)
   14250:	03c12b83          	lw	s7,60(sp)
   14254:	04c12c83          	lw	s9,76(sp)
   14258:	00812903          	lw	s2,8(sp)
   1425c:	00700693          	li	a3,7
   14260:	01000d13          	li	s10,16
   14264:	0000eb17          	auipc	s6,0xe
   14268:	db0b0b13          	add	s6,s6,-592 # 22014 <zeroes.0>
   1426c:	00048613          	mv	a2,s1
   14270:	00030c13          	mv	s8,t1
   14274:	09405863          	blez	s4,14304 <_vfprintf_r+0x256c>
   14278:	16805e63          	blez	s0,143f4 <_vfprintf_r+0x265c>
   1427c:	fff40413          	add	s0,s0,-1
   14280:	04812783          	lw	a5,72(sp)
   14284:	01960633          	add	a2,a2,s9
   14288:	01972223          	sw	s9,4(a4)
   1428c:	00f72023          	sw	a5,0(a4)
   14290:	0a412783          	lw	a5,164(sp)
   14294:	0ac12423          	sw	a2,168(sp)
   14298:	00870713          	add	a4,a4,8
   1429c:	00178793          	add	a5,a5,1
   142a0:	0af12223          	sw	a5,164(sp)
   142a4:	14f6ce63          	blt	a3,a5,14400 <_vfprintf_r+0x2668>
   142a8:	04412783          	lw	a5,68(sp)
   142ac:	000bc583          	lbu	a1,0(s7)
   142b0:	418784b3          	sub	s1,a5,s8
   142b4:	0095d463          	bge	a1,s1,142bc <_vfprintf_r+0x2524>
   142b8:	00058493          	mv	s1,a1
   142bc:	02905663          	blez	s1,142e8 <_vfprintf_r+0x2550>
   142c0:	0a412583          	lw	a1,164(sp)
   142c4:	00960633          	add	a2,a2,s1
   142c8:	01872023          	sw	s8,0(a4)
   142cc:	00158593          	add	a1,a1,1
   142d0:	00972223          	sw	s1,4(a4)
   142d4:	0ac12423          	sw	a2,168(sp)
   142d8:	0ab12223          	sw	a1,164(sp)
   142dc:	14b6c663          	blt	a3,a1,14428 <_vfprintf_r+0x2690>
   142e0:	000bc583          	lbu	a1,0(s7)
   142e4:	00870713          	add	a4,a4,8
   142e8:	fff4c513          	not	a0,s1
   142ec:	41f55513          	sra	a0,a0,0x1f
   142f0:	00a4f7b3          	and	a5,s1,a0
   142f4:	40f584b3          	sub	s1,a1,a5
   142f8:	04904663          	bgtz	s1,14344 <_vfprintf_r+0x25ac>
   142fc:	00bc0c33          	add	s8,s8,a1
   14300:	f7404ce3          	bgtz	s4,14278 <_vfprintf_r+0x24e0>
   14304:	f6804ce3          	bgtz	s0,1427c <_vfprintf_r+0x24e4>
   14308:	01812783          	lw	a5,24(sp)
   1430c:	000c0313          	mv	t1,s8
   14310:	02412c03          	lw	s8,36(sp)
   14314:	03712e23          	sw	s7,60(sp)
   14318:	00070413          	mv	s0,a4
   1431c:	00fc0733          	add	a4,s8,a5
   14320:	05012903          	lw	s2,80(sp)
   14324:	05412e83          	lw	t4,84(sp)
   14328:	05812b83          	lw	s7,88(sp)
   1432c:	05c12c83          	lw	s9,92(sp)
   14330:	00060493          	mv	s1,a2
   14334:	00676463          	bltu	a4,t1,1433c <_vfprintf_r+0x25a4>
   14338:	c59fe06f          	j	12f90 <_vfprintf_r+0x11f8>
   1433c:	00070313          	mv	t1,a4
   14340:	c51fe06f          	j	12f90 <_vfprintf_r+0x11f8>
   14344:	0a412583          	lw	a1,164(sp)
   14348:	0000ee97          	auipc	t4,0xe
   1434c:	ccce8e93          	add	t4,t4,-820 # 22014 <zeroes.0>
   14350:	069d5c63          	bge	s10,s1,143c8 <_vfprintf_r+0x2630>
   14354:	02812023          	sw	s0,32(sp)
   14358:	00048413          	mv	s0,s1
   1435c:	000b0493          	mv	s1,s6
   14360:	00c0006f          	j	1436c <_vfprintf_r+0x25d4>
   14364:	ff040413          	add	s0,s0,-16
   14368:	048d5a63          	bge	s10,s0,143bc <_vfprintf_r+0x2624>
   1436c:	01060613          	add	a2,a2,16
   14370:	00158593          	add	a1,a1,1
   14374:	01672023          	sw	s6,0(a4)
   14378:	01a72223          	sw	s10,4(a4)
   1437c:	0ac12423          	sw	a2,168(sp)
   14380:	0ab12223          	sw	a1,164(sp)
   14384:	00870713          	add	a4,a4,8
   14388:	fcb6dee3          	bge	a3,a1,14364 <_vfprintf_r+0x25cc>
   1438c:	0a010613          	add	a2,sp,160
   14390:	00090593          	mv	a1,s2
   14394:	00098513          	mv	a0,s3
   14398:	0cd000ef          	jal	14c64 <__sprint_r>
   1439c:	00050463          	beqz	a0,143a4 <_vfprintf_r+0x260c>
   143a0:	ec5fd06f          	j	12264 <_vfprintf_r+0x4cc>
   143a4:	ff040413          	add	s0,s0,-16
   143a8:	0a812603          	lw	a2,168(sp)
   143ac:	0a412583          	lw	a1,164(sp)
   143b0:	0ac10713          	add	a4,sp,172
   143b4:	00700693          	li	a3,7
   143b8:	fa8d4ae3          	blt	s10,s0,1436c <_vfprintf_r+0x25d4>
   143bc:	00048e93          	mv	t4,s1
   143c0:	00040493          	mv	s1,s0
   143c4:	02012403          	lw	s0,32(sp)
   143c8:	00960633          	add	a2,a2,s1
   143cc:	00158593          	add	a1,a1,1
   143d0:	01d72023          	sw	t4,0(a4)
   143d4:	00972223          	sw	s1,4(a4)
   143d8:	0ac12423          	sw	a2,168(sp)
   143dc:	0ab12223          	sw	a1,164(sp)
   143e0:	10b6ce63          	blt	a3,a1,144fc <_vfprintf_r+0x2764>
   143e4:	000bc583          	lbu	a1,0(s7)
   143e8:	00870713          	add	a4,a4,8
   143ec:	00bc0c33          	add	s8,s8,a1
   143f0:	f11ff06f          	j	14300 <_vfprintf_r+0x2568>
   143f4:	fffb8b93          	add	s7,s7,-1
   143f8:	fffa0a13          	add	s4,s4,-1
   143fc:	e85ff06f          	j	14280 <_vfprintf_r+0x24e8>
   14400:	0a010613          	add	a2,sp,160
   14404:	00090593          	mv	a1,s2
   14408:	00098513          	mv	a0,s3
   1440c:	059000ef          	jal	14c64 <__sprint_r>
   14410:	00050463          	beqz	a0,14418 <_vfprintf_r+0x2680>
   14414:	e51fd06f          	j	12264 <_vfprintf_r+0x4cc>
   14418:	0a812603          	lw	a2,168(sp)
   1441c:	0ac10713          	add	a4,sp,172
   14420:	00700693          	li	a3,7
   14424:	e85ff06f          	j	142a8 <_vfprintf_r+0x2510>
   14428:	0a010613          	add	a2,sp,160
   1442c:	00090593          	mv	a1,s2
   14430:	00098513          	mv	a0,s3
   14434:	031000ef          	jal	14c64 <__sprint_r>
   14438:	00050463          	beqz	a0,14440 <_vfprintf_r+0x26a8>
   1443c:	e29fd06f          	j	12264 <_vfprintf_r+0x4cc>
   14440:	000bc583          	lbu	a1,0(s7)
   14444:	0a812603          	lw	a2,168(sp)
   14448:	0ac10713          	add	a4,sp,172
   1444c:	00700693          	li	a3,7
   14450:	e99ff06f          	j	142e8 <_vfprintf_r+0x2550>
   14454:	04c12783          	lw	a5,76(sp)
   14458:	04812583          	lw	a1,72(sp)
   1445c:	00000913          	li	s2,0
   14460:	40fc0c33          	sub	s8,s8,a5
   14464:	00078613          	mv	a2,a5
   14468:	000c0513          	mv	a0,s8
   1446c:	07c030ef          	jal	174e8 <strncpy>
   14470:	00144783          	lbu	a5,1(s0)
   14474:	00a00613          	li	a2,10
   14478:	00000693          	li	a3,0
   1447c:	00f037b3          	snez	a5,a5
   14480:	000d0513          	mv	a0,s10
   14484:	000c8593          	mv	a1,s9
   14488:	00f40433          	add	s0,s0,a5
   1448c:	53d090ef          	jal	1e1c8 <__udivdi3>
   14490:	a10ff06f          	j	136a0 <_vfprintf_r+0x1908>
   14494:	09810713          	add	a4,sp,152
   14498:	00000693          	li	a3,0
   1449c:	08410613          	add	a2,sp,132
   144a0:	00000593          	li	a1,0
   144a4:	00098513          	mv	a0,s3
   144a8:	01c12a23          	sw	t3,20(sp)
   144ac:	01d12823          	sw	t4,16(sp)
   144b0:	6dc080ef          	jal	1cb8c <_wcsrtombs_r>
   144b4:	fff00713          	li	a4,-1
   144b8:	01012e83          	lw	t4,16(sp)
   144bc:	01412e03          	lw	t3,20(sp)
   144c0:	00050d13          	mv	s10,a0
   144c4:	30e50063          	beq	a0,a4,147c4 <_vfprintf_r+0x2a2c>
   144c8:	09812223          	sw	s8,132(sp)
   144cc:	cacff06f          	j	13978 <_vfprintf_r+0x1be0>
   144d0:	07714603          	lbu	a2,119(sp)
   144d4:	01612a23          	sw	s6,20(sp)
   144d8:	02012223          	sw	zero,36(sp)
   144dc:	02012023          	sw	zero,32(sp)
   144e0:	00012823          	sw	zero,16(sp)
   144e4:	00000c93          	li	s9,0
   144e8:	00000313          	li	t1,0
   144ec:	00000a13          	li	s4,0
   144f0:	00061463          	bnez	a2,144f8 <_vfprintf_r+0x2760>
   144f4:	ae1fd06f          	j	11fd4 <_vfprintf_r+0x23c>
   144f8:	efdfd06f          	j	123f4 <_vfprintf_r+0x65c>
   144fc:	0a010613          	add	a2,sp,160
   14500:	00090593          	mv	a1,s2
   14504:	00098513          	mv	a0,s3
   14508:	75c000ef          	jal	14c64 <__sprint_r>
   1450c:	00050463          	beqz	a0,14514 <_vfprintf_r+0x277c>
   14510:	d55fd06f          	j	12264 <_vfprintf_r+0x4cc>
   14514:	000bc583          	lbu	a1,0(s7)
   14518:	0a812603          	lw	a2,168(sp)
   1451c:	0ac10713          	add	a4,sp,172
   14520:	00700693          	li	a3,7
   14524:	00bc0c33          	add	s8,s8,a1
   14528:	dd9ff06f          	j	14300 <_vfprintf_r+0x2568>
   1452c:	00812583          	lw	a1,8(sp)
   14530:	0a010613          	add	a2,sp,160
   14534:	00098513          	mv	a0,s3
   14538:	05d12223          	sw	t4,68(sp)
   1453c:	728000ef          	jal	14c64 <__sprint_r>
   14540:	00050463          	beqz	a0,14548 <_vfprintf_r+0x27b0>
   14544:	d21fd06f          	j	12264 <_vfprintf_r+0x4cc>
   14548:	0a812483          	lw	s1,168(sp)
   1454c:	04412e83          	lw	t4,68(sp)
   14550:	0ac10413          	add	s0,sp,172
   14554:	a19fe06f          	j	12f6c <_vfprintf_r+0x11d4>
   14558:	00900793          	li	a5,9
   1455c:	95a7e263          	bltu	a5,s10,136a0 <_vfprintf_r+0x1908>
   14560:	98cff06f          	j	136ec <_vfprintf_r+0x1954>
   14564:	07c12a03          	lw	s4,124(sp)
   14568:	00070793          	mv	a5,a4
   1456c:	9f1ff06f          	j	13f5c <_vfprintf_r+0x21c4>
   14570:	00812583          	lw	a1,8(sp)
   14574:	0a010613          	add	a2,sp,160
   14578:	00098513          	mv	a0,s3
   1457c:	03d12023          	sw	t4,32(sp)
   14580:	6e4000ef          	jal	14c64 <__sprint_r>
   14584:	00050463          	beqz	a0,1458c <_vfprintf_r+0x27f4>
   14588:	cddfd06f          	j	12264 <_vfprintf_r+0x4cc>
   1458c:	07c12d03          	lw	s10,124(sp)
   14590:	01812783          	lw	a5,24(sp)
   14594:	0a812483          	lw	s1,168(sp)
   14598:	02012e83          	lw	t4,32(sp)
   1459c:	0ac10413          	add	s0,sp,172
   145a0:	41a78d33          	sub	s10,a5,s10
   145a4:	a49fe06f          	j	12fec <_vfprintf_r+0x1254>
   145a8:	00650733          	add	a4,a0,t1
   145ac:	04700d13          	li	s10,71
   145b0:	94dff06f          	j	13efc <_vfprintf_r+0x2164>
   145b4:	02812603          	lw	a2,40(sp)
   145b8:	00048593          	mv	a1,s1
   145bc:	00000693          	li	a3,0
   145c0:	00060513          	mv	a0,a2
   145c4:	00000613          	li	a2,0
   145c8:	04e12823          	sw	a4,80(sp)
   145cc:	02612223          	sw	t1,36(sp)
   145d0:	03c12023          	sw	t3,32(sp)
   145d4:	01d12c23          	sw	t4,24(sp)
   145d8:	2690b0ef          	jal	20040 <__eqdf2>
   145dc:	01812e83          	lw	t4,24(sp)
   145e0:	02012e03          	lw	t3,32(sp)
   145e4:	02412303          	lw	t1,36(sp)
   145e8:	05012703          	lw	a4,80(sp)
   145ec:	34051e63          	bnez	a0,14948 <_vfprintf_r+0x2bb0>
   145f0:	07c12a03          	lw	s4,124(sp)
   145f4:	01470733          	add	a4,a4,s4
   145f8:	418707b3          	sub	a5,a4,s8
   145fc:	00f12c23          	sw	a5,24(sp)
   14600:	001ef713          	and	a4,t4,1
   14604:	00676733          	or	a4,a4,t1
   14608:	37405a63          	blez	s4,1497c <_vfprintf_r+0x2be4>
   1460c:	26071263          	bnez	a4,14870 <_vfprintf_r+0x2ad8>
   14610:	000a0d13          	mv	s10,s4
   14614:	06600e13          	li	t3,102
   14618:	400eff13          	and	t5,t4,1024
   1461c:	1c0f1a63          	bnez	t5,147f0 <_vfprintf_r+0x2a58>
   14620:	fffd4813          	not	a6,s10
   14624:	41f85813          	sra	a6,a6,0x1f
   14628:	010d7cb3          	and	s9,s10,a6
   1462c:	bd9ff06f          	j	14204 <_vfprintf_r+0x246c>
   14630:	01812783          	lw	a5,24(sp)
   14634:	03012703          	lw	a4,48(sp)
   14638:	06700e13          	li	t3,103
   1463c:	00e78d33          	add	s10,a5,a4
   14640:	fd404ce3          	bgtz	s4,14618 <_vfprintf_r+0x2880>
   14644:	414d06b3          	sub	a3,s10,s4
   14648:	00168d13          	add	s10,a3,1
   1464c:	fffd4813          	not	a6,s10
   14650:	41f85813          	sra	a6,a6,0x1f
   14654:	010d7cb3          	and	s9,s10,a6
   14658:	badff06f          	j	14204 <_vfprintf_r+0x246c>
   1465c:	000e8613          	mv	a2,t4
   14660:	ad8fe06f          	j	12938 <_vfprintf_r+0xba0>
   14664:	00812783          	lw	a5,8(sp)
   14668:	0647a783          	lw	a5,100(a5)
   1466c:	0017f793          	and	a5,a5,1
   14670:	02079063          	bnez	a5,14690 <_vfprintf_r+0x28f8>
   14674:	00812783          	lw	a5,8(sp)
   14678:	00c7d783          	lhu	a5,12(a5)
   1467c:	2007f793          	and	a5,a5,512
   14680:	00079863          	bnez	a5,14690 <_vfprintf_r+0x28f8>
   14684:	00812783          	lw	a5,8(sp)
   14688:	0587a503          	lw	a0,88(a5)
   1468c:	fe4fc0ef          	jal	10e70 <__retarget_lock_release_recursive>
   14690:	fff00793          	li	a5,-1
   14694:	00f12623          	sw	a5,12(sp)
   14698:	c2dfd06f          	j	122c4 <_vfprintf_r+0x52c>
   1469c:	ff000613          	li	a2,-16
   146a0:	40d00d33          	neg	s10,a3
   146a4:	0000e297          	auipc	t0,0xe
   146a8:	97028293          	add	t0,t0,-1680 # 22014 <zeroes.0>
   146ac:	08c6d463          	bge	a3,a2,14734 <_vfprintf_r+0x299c>
   146b0:	03212023          	sw	s2,32(sp)
   146b4:	01000693          	li	a3,16
   146b8:	00700b13          	li	s6,7
   146bc:	000e8a13          	mv	s4,t4
   146c0:	00028913          	mv	s2,t0
   146c4:	00c0006f          	j	146d0 <_vfprintf_r+0x2938>
   146c8:	ff0d0d13          	add	s10,s10,-16
   146cc:	05a6de63          	bge	a3,s10,14728 <_vfprintf_r+0x2990>
   146d0:	01048493          	add	s1,s1,16
   146d4:	00170713          	add	a4,a4,1
   146d8:	01242023          	sw	s2,0(s0)
   146dc:	00d42223          	sw	a3,4(s0)
   146e0:	0a912423          	sw	s1,168(sp)
   146e4:	0ae12223          	sw	a4,164(sp)
   146e8:	00840413          	add	s0,s0,8
   146ec:	fceb5ee3          	bge	s6,a4,146c8 <_vfprintf_r+0x2930>
   146f0:	00812583          	lw	a1,8(sp)
   146f4:	0a010613          	add	a2,sp,160
   146f8:	00098513          	mv	a0,s3
   146fc:	568000ef          	jal	14c64 <__sprint_r>
   14700:	00050463          	beqz	a0,14708 <_vfprintf_r+0x2970>
   14704:	b61fd06f          	j	12264 <_vfprintf_r+0x4cc>
   14708:	0a812483          	lw	s1,168(sp)
   1470c:	0a412703          	lw	a4,164(sp)
   14710:	0ac10413          	add	s0,sp,172
   14714:	01000693          	li	a3,16
   14718:	fb1ff06f          	j	146c8 <_vfprintf_r+0x2930>
   1471c:	00012823          	sw	zero,16(sp)
   14720:	0ec10c13          	add	s8,sp,236
   14724:	a88ff06f          	j	139ac <_vfprintf_r+0x1c14>
   14728:	00090293          	mv	t0,s2
   1472c:	02012903          	lw	s2,32(sp)
   14730:	000a0e93          	mv	t4,s4
   14734:	01a484b3          	add	s1,s1,s10
   14738:	00170713          	add	a4,a4,1
   1473c:	00542023          	sw	t0,0(s0)
   14740:	01a42223          	sw	s10,4(s0)
   14744:	0a912423          	sw	s1,168(sp)
   14748:	0ae12223          	sw	a4,164(sp)
   1474c:	00700693          	li	a3,7
   14750:	00e6c463          	blt	a3,a4,14758 <_vfprintf_r+0x29c0>
   14754:	b65fe06f          	j	132b8 <_vfprintf_r+0x1520>
   14758:	00812583          	lw	a1,8(sp)
   1475c:	0a010613          	add	a2,sp,160
   14760:	00098513          	mv	a0,s3
   14764:	03d12023          	sw	t4,32(sp)
   14768:	4fc000ef          	jal	14c64 <__sprint_r>
   1476c:	00050463          	beqz	a0,14774 <_vfprintf_r+0x29dc>
   14770:	af5fd06f          	j	12264 <_vfprintf_r+0x4cc>
   14774:	0a812483          	lw	s1,168(sp)
   14778:	0a412703          	lw	a4,164(sp)
   1477c:	02012e83          	lw	t4,32(sp)
   14780:	0ac10413          	add	s0,sp,172
   14784:	b20ff06f          	j	13aa4 <_vfprintf_r+0x1d0c>
   14788:	08a10693          	add	a3,sp,138
   1478c:	00061863          	bnez	a2,1479c <_vfprintf_r+0x2a04>
   14790:	03000693          	li	a3,48
   14794:	08d10523          	sb	a3,138(sp)
   14798:	08b10693          	add	a3,sp,139
   1479c:	15010793          	add	a5,sp,336
   147a0:	40f68633          	sub	a2,a3,a5
   147a4:	030d0713          	add	a4,s10,48
   147a8:	0c960793          	add	a5,a2,201
   147ac:	00e68023          	sb	a4,0(a3)
   147b0:	04f12023          	sw	a5,64(sp)
   147b4:	d5cff06f          	j	13d10 <_vfprintf_r+0x1f78>
   147b8:	001ef713          	and	a4,t4,1
   147bc:	d6070863          	beqz	a4,13d2c <_vfprintf_r+0x1f94>
   147c0:	d64ff06f          	j	13d24 <_vfprintf_r+0x1f8c>
   147c4:	00812783          	lw	a5,8(sp)
   147c8:	00000293          	li	t0,0
   147cc:	00c79783          	lh	a5,12(a5)
   147d0:	0407e793          	or	a5,a5,64
   147d4:	00812703          	lw	a4,8(sp)
   147d8:	00f71623          	sh	a5,12(a4)
   147dc:	a8dfd06f          	j	12268 <_vfprintf_r+0x4d0>
   147e0:	00012823          	sw	zero,16(sp)
   147e4:	00600313          	li	t1,6
   147e8:	ff9fe06f          	j	137e0 <_vfprintf_r+0x1a48>
   147ec:	06700e13          	li	t3,103
   147f0:	03c12783          	lw	a5,60(sp)
   147f4:	0ff00613          	li	a2,255
   147f8:	0007c703          	lbu	a4,0(a5)
   147fc:	22c70263          	beq	a4,a2,14a20 <_vfprintf_r+0x2c88>
   14800:	00000593          	li	a1,0
   14804:	00000693          	li	a3,0
   14808:	01475e63          	bge	a4,s4,14824 <_vfprintf_r+0x2a8c>
   1480c:	40ea0a33          	sub	s4,s4,a4
   14810:	0017c703          	lbu	a4,1(a5)
   14814:	04070863          	beqz	a4,14864 <_vfprintf_r+0x2acc>
   14818:	00168693          	add	a3,a3,1
   1481c:	00178793          	add	a5,a5,1
   14820:	fec714e3          	bne	a4,a2,14808 <_vfprintf_r+0x2a70>
   14824:	02f12e23          	sw	a5,60(sp)
   14828:	02d12023          	sw	a3,32(sp)
   1482c:	02b12223          	sw	a1,36(sp)
   14830:	02012783          	lw	a5,32(sp)
   14834:	02412703          	lw	a4,36(sp)
   14838:	04c12583          	lw	a1,76(sp)
   1483c:	05c12823          	sw	t3,80(sp)
   14840:	00e78533          	add	a0,a5,a4
   14844:	1580d0ef          	jal	2199c <__mulsi3>
   14848:	01a50d33          	add	s10,a0,s10
   1484c:	fffd4813          	not	a6,s10
   14850:	41f85813          	sra	a6,a6,0x1f
   14854:	05012e03          	lw	t3,80(sp)
   14858:	010d7cb3          	and	s9,s10,a6
   1485c:	000b0e93          	mv	t4,s6
   14860:	cecff06f          	j	13d4c <_vfprintf_r+0x1fb4>
   14864:	0007c703          	lbu	a4,0(a5)
   14868:	00158593          	add	a1,a1,1
   1486c:	fb5ff06f          	j	14820 <_vfprintf_r+0x2a88>
   14870:	03012783          	lw	a5,48(sp)
   14874:	06600e13          	li	t3,102
   14878:	00f306b3          	add	a3,t1,a5
   1487c:	01468d33          	add	s10,a3,s4
   14880:	d99ff06f          	j	14618 <_vfprintf_r+0x2880>
   14884:	02c12783          	lw	a5,44(sp)
   14888:	0a07c863          	bltz	a5,14938 <_vfprintf_r+0x2ba0>
   1488c:	07714603          	lbu	a2,119(sp)
   14890:	04700713          	li	a4,71
   14894:	0000dc17          	auipc	s8,0xd
   14898:	2acc0c13          	add	s8,s8,684 # 21b40 <__clzsi2+0xcc>
   1489c:	01c75463          	bge	a4,t3,148a4 <_vfprintf_r+0x2b0c>
   148a0:	b31fd06f          	j	123d0 <_vfprintf_r+0x638>
   148a4:	0000dc17          	auipc	s8,0xd
   148a8:	298c0c13          	add	s8,s8,664 # 21b3c <__clzsi2+0xc8>
   148ac:	b25fd06f          	j	123d0 <_vfprintf_r+0x638>
   148b0:	07714603          	lbu	a2,119(sp)
   148b4:	01612a23          	sw	s6,20(sp)
   148b8:	02012223          	sw	zero,36(sp)
   148bc:	02012023          	sw	zero,32(sp)
   148c0:	00030c93          	mv	s9,t1
   148c4:	00030d13          	mv	s10,t1
   148c8:	07300e13          	li	t3,115
   148cc:	00000313          	li	t1,0
   148d0:	00061463          	bnez	a2,148d8 <_vfprintf_r+0x2b40>
   148d4:	f00fd06f          	j	11fd4 <_vfprintf_r+0x23c>
   148d8:	b1dfd06f          	j	123f4 <_vfprintf_r+0x65c>
   148dc:	00040313          	mv	t1,s0
   148e0:	01012903          	lw	s2,16(sp)
   148e4:	000b0413          	mv	s0,s6
   148e8:	01412e03          	lw	t3,20(sp)
   148ec:	000c0b13          	mv	s6,s8
   148f0:	000a0e93          	mv	t4,s4
   148f4:	000c8c13          	mv	s8,s9
   148f8:	00030d13          	mv	s10,t1
   148fc:	87cff06f          	j	13978 <_vfprintf_r+0x1be0>
   14900:	001b0793          	add	a5,s6,1
   14904:	000c0993          	mv	s3,s8
   14908:	02412903          	lw	s2,36(sp)
   1490c:	04012e83          	lw	t4,64(sp)
   14910:	05012e03          	lw	t3,80(sp)
   14914:	05412403          	lw	s0,84(sp)
   14918:	000d0c13          	mv	s8,s10
   1491c:	00f487b3          	add	a5,s1,a5
   14920:	03000693          	li	a3,48
   14924:	840b40e3          	bltz	s6,14164 <_vfprintf_r+0x23cc>
   14928:	00148493          	add	s1,s1,1
   1492c:	fed48fa3          	sb	a3,-1(s1)
   14930:	fe979ce3          	bne	a5,s1,14928 <_vfprintf_r+0x2b90>
   14934:	835ff06f          	j	14168 <_vfprintf_r+0x23d0>
   14938:	02d00793          	li	a5,45
   1493c:	06f10ba3          	sb	a5,119(sp)
   14940:	02d00613          	li	a2,45
   14944:	f4dff06f          	j	14890 <_vfprintf_r+0x2af8>
   14948:	00100693          	li	a3,1
   1494c:	414686b3          	sub	a3,a3,s4
   14950:	06d12e23          	sw	a3,124(sp)
   14954:	da4ff06f          	j	13ef8 <_vfprintf_r+0x2160>
   14958:	01412783          	lw	a5,20(sp)
   1495c:	0007ab03          	lw	s6,0(a5)
   14960:	00478793          	add	a5,a5,4
   14964:	000b5463          	bgez	s6,1496c <_vfprintf_r+0x2bd4>
   14968:	fff00b13          	li	s6,-1
   1496c:	00194e03          	lbu	t3,1(s2)
   14970:	00f12a23          	sw	a5,20(sp)
   14974:	00068913          	mv	s2,a3
   14978:	dccfd06f          	j	11f44 <_vfprintf_r+0x1ac>
   1497c:	00071a63          	bnez	a4,14990 <_vfprintf_r+0x2bf8>
   14980:	00100c93          	li	s9,1
   14984:	06600e13          	li	t3,102
   14988:	00100d13          	li	s10,1
   1498c:	879ff06f          	j	14204 <_vfprintf_r+0x246c>
   14990:	03012783          	lw	a5,48(sp)
   14994:	06600e13          	li	t3,102
   14998:	00178693          	add	a3,a5,1
   1499c:	00668d33          	add	s10,a3,t1
   149a0:	fffd4813          	not	a6,s10
   149a4:	41f85813          	sra	a6,a6,0x1f
   149a8:	010d7cb3          	and	s9,s10,a6
   149ac:	859ff06f          	j	14204 <_vfprintf_r+0x246c>
   149b0:	00200793          	li	a5,2
   149b4:	04f12023          	sw	a5,64(sp)
   149b8:	b58ff06f          	j	13d10 <_vfprintf_r+0x1f78>
   149bc:	00812703          	lw	a4,8(sp)
   149c0:	00c71783          	lh	a5,12(a4)
   149c4:	0407e793          	or	a5,a5,64
   149c8:	00f71623          	sh	a5,12(a4)
   149cc:	8b5fd06f          	j	12280 <_vfprintf_r+0x4e8>
   149d0:	000a0513          	mv	a0,s4
   149d4:	000d0593          	mv	a1,s10
   149d8:	00030613          	mv	a2,t1
   149dc:	00038693          	mv	a3,t2
   149e0:	05012023          	sw	a6,64(sp)
   149e4:	03c12223          	sw	t3,36(sp)
   149e8:	01d12c23          	sw	t4,24(sp)
   149ec:	6540b0ef          	jal	20040 <__eqdf2>
   149f0:	01812e83          	lw	t4,24(sp)
   149f4:	02412e03          	lw	t3,36(sp)
   149f8:	04012803          	lw	a6,64(sp)
   149fc:	f6051463          	bnez	a0,14164 <_vfprintf_r+0x23cc>
   14a00:	001b7693          	and	a3,s6,1
   14a04:	f6068063          	beqz	a3,14164 <_vfprintf_r+0x23cc>
   14a08:	f14ff06f          	j	1411c <_vfprintf_r+0x2384>
   14a0c:	00812783          	lw	a5,8(sp)
   14a10:	01012283          	lw	t0,16(sp)
   14a14:	00c79783          	lh	a5,12(a5)
   14a18:	0407e793          	or	a5,a5,64
   14a1c:	db9ff06f          	j	147d4 <_vfprintf_r+0x2a3c>
   14a20:	02012223          	sw	zero,36(sp)
   14a24:	02012023          	sw	zero,32(sp)
   14a28:	e09ff06f          	j	14830 <_vfprintf_r+0x2a98>
   14a2c:	04500d13          	li	s10,69
   14a30:	cccff06f          	j	13efc <_vfprintf_r+0x2164>

00014a34 <vfprintf>:
   14a34:	00060693          	mv	a3,a2
   14a38:	00058613          	mv	a2,a1
   14a3c:	00050593          	mv	a1,a0
   14a40:	f341a503          	lw	a0,-204(gp) # 23904 <_impure_ptr>
   14a44:	b54fd06f          	j	11d98 <_vfprintf_r>

00014a48 <__sbprintf>:
   14a48:	b7010113          	add	sp,sp,-1168
   14a4c:	00c59783          	lh	a5,12(a1)
   14a50:	00e5d703          	lhu	a4,14(a1)
   14a54:	48812423          	sw	s0,1160(sp)
   14a58:	00058413          	mv	s0,a1
   14a5c:	000105b7          	lui	a1,0x10
   14a60:	ffd58593          	add	a1,a1,-3 # fffd <exit-0x97>
   14a64:	06442303          	lw	t1,100(s0)
   14a68:	01c42883          	lw	a7,28(s0)
   14a6c:	02442803          	lw	a6,36(s0)
   14a70:	01071713          	sll	a4,a4,0x10
   14a74:	00b7f7b3          	and	a5,a5,a1
   14a78:	00e7e7b3          	or	a5,a5,a4
   14a7c:	40000593          	li	a1,1024
   14a80:	49212023          	sw	s2,1152(sp)
   14a84:	00f12a23          	sw	a5,20(sp)
   14a88:	00050913          	mv	s2,a0
   14a8c:	07010793          	add	a5,sp,112
   14a90:	06010513          	add	a0,sp,96
   14a94:	48112623          	sw	ra,1164(sp)
   14a98:	48912223          	sw	s1,1156(sp)
   14a9c:	47312e23          	sw	s3,1148(sp)
   14aa0:	00060493          	mv	s1,a2
   14aa4:	00068993          	mv	s3,a3
   14aa8:	06612623          	sw	t1,108(sp)
   14aac:	03112223          	sw	a7,36(sp)
   14ab0:	03012623          	sw	a6,44(sp)
   14ab4:	00f12423          	sw	a5,8(sp)
   14ab8:	00f12c23          	sw	a5,24(sp)
   14abc:	00b12823          	sw	a1,16(sp)
   14ac0:	00b12e23          	sw	a1,28(sp)
   14ac4:	02012023          	sw	zero,32(sp)
   14ac8:	b80fc0ef          	jal	10e48 <__retarget_lock_init_recursive>
   14acc:	00048613          	mv	a2,s1
   14ad0:	00098693          	mv	a3,s3
   14ad4:	00810593          	add	a1,sp,8
   14ad8:	00090513          	mv	a0,s2
   14adc:	abcfd0ef          	jal	11d98 <_vfprintf_r>
   14ae0:	00050493          	mv	s1,a0
   14ae4:	04055263          	bgez	a0,14b28 <__sbprintf+0xe0>
   14ae8:	01415783          	lhu	a5,20(sp)
   14aec:	0407f793          	and	a5,a5,64
   14af0:	00078863          	beqz	a5,14b00 <__sbprintf+0xb8>
   14af4:	00c45783          	lhu	a5,12(s0)
   14af8:	0407e793          	or	a5,a5,64
   14afc:	00f41623          	sh	a5,12(s0)
   14b00:	06012503          	lw	a0,96(sp)
   14b04:	b4cfc0ef          	jal	10e50 <__retarget_lock_close_recursive>
   14b08:	48c12083          	lw	ra,1164(sp)
   14b0c:	48812403          	lw	s0,1160(sp)
   14b10:	48012903          	lw	s2,1152(sp)
   14b14:	47c12983          	lw	s3,1148(sp)
   14b18:	00048513          	mv	a0,s1
   14b1c:	48412483          	lw	s1,1156(sp)
   14b20:	49010113          	add	sp,sp,1168
   14b24:	00008067          	ret
   14b28:	00810593          	add	a1,sp,8
   14b2c:	00090513          	mv	a0,s2
   14b30:	5d5010ef          	jal	16904 <_fflush_r>
   14b34:	fa050ae3          	beqz	a0,14ae8 <__sbprintf+0xa0>
   14b38:	fff00493          	li	s1,-1
   14b3c:	fadff06f          	j	14ae8 <__sbprintf+0xa0>

00014b40 <__sprint_r.part.0>:
   14b40:	0645a783          	lw	a5,100(a1)
   14b44:	fd010113          	add	sp,sp,-48
   14b48:	01612823          	sw	s6,16(sp)
   14b4c:	02112623          	sw	ra,44(sp)
   14b50:	01279713          	sll	a4,a5,0x12
   14b54:	00060b13          	mv	s6,a2
   14b58:	0e075863          	bgez	a4,14c48 <__sprint_r.part.0+0x108>
   14b5c:	00862783          	lw	a5,8(a2)
   14b60:	03212023          	sw	s2,32(sp)
   14b64:	01312e23          	sw	s3,28(sp)
   14b68:	01512a23          	sw	s5,20(sp)
   14b6c:	01712623          	sw	s7,12(sp)
   14b70:	00058913          	mv	s2,a1
   14b74:	00062b83          	lw	s7,0(a2)
   14b78:	00050993          	mv	s3,a0
   14b7c:	fff00a93          	li	s5,-1
   14b80:	0a078863          	beqz	a5,14c30 <__sprint_r.part.0+0xf0>
   14b84:	02812423          	sw	s0,40(sp)
   14b88:	02912223          	sw	s1,36(sp)
   14b8c:	01412c23          	sw	s4,24(sp)
   14b90:	01812423          	sw	s8,8(sp)
   14b94:	004bac03          	lw	s8,4(s7)
   14b98:	000ba403          	lw	s0,0(s7)
   14b9c:	002c5a13          	srl	s4,s8,0x2
   14ba0:	060a0663          	beqz	s4,14c0c <__sprint_r.part.0+0xcc>
   14ba4:	00000493          	li	s1,0
   14ba8:	00c0006f          	j	14bb4 <__sprint_r.part.0+0x74>
   14bac:	00440413          	add	s0,s0,4
   14bb0:	049a0c63          	beq	s4,s1,14c08 <__sprint_r.part.0+0xc8>
   14bb4:	00042583          	lw	a1,0(s0)
   14bb8:	00090613          	mv	a2,s2
   14bbc:	00098513          	mv	a0,s3
   14bc0:	6a8020ef          	jal	17268 <_fputwc_r>
   14bc4:	00148493          	add	s1,s1,1
   14bc8:	ff5512e3          	bne	a0,s5,14bac <__sprint_r.part.0+0x6c>
   14bcc:	02812403          	lw	s0,40(sp)
   14bd0:	02412483          	lw	s1,36(sp)
   14bd4:	02012903          	lw	s2,32(sp)
   14bd8:	01c12983          	lw	s3,28(sp)
   14bdc:	01812a03          	lw	s4,24(sp)
   14be0:	01412a83          	lw	s5,20(sp)
   14be4:	00c12b83          	lw	s7,12(sp)
   14be8:	00812c03          	lw	s8,8(sp)
   14bec:	fff00513          	li	a0,-1
   14bf0:	02c12083          	lw	ra,44(sp)
   14bf4:	000b2423          	sw	zero,8(s6)
   14bf8:	000b2223          	sw	zero,4(s6)
   14bfc:	01012b03          	lw	s6,16(sp)
   14c00:	03010113          	add	sp,sp,48
   14c04:	00008067          	ret
   14c08:	008b2783          	lw	a5,8(s6)
   14c0c:	ffcc7c13          	and	s8,s8,-4
   14c10:	418787b3          	sub	a5,a5,s8
   14c14:	00fb2423          	sw	a5,8(s6)
   14c18:	008b8b93          	add	s7,s7,8
   14c1c:	f6079ce3          	bnez	a5,14b94 <__sprint_r.part.0+0x54>
   14c20:	02812403          	lw	s0,40(sp)
   14c24:	02412483          	lw	s1,36(sp)
   14c28:	01812a03          	lw	s4,24(sp)
   14c2c:	00812c03          	lw	s8,8(sp)
   14c30:	02012903          	lw	s2,32(sp)
   14c34:	01c12983          	lw	s3,28(sp)
   14c38:	01412a83          	lw	s5,20(sp)
   14c3c:	00c12b83          	lw	s7,12(sp)
   14c40:	00000513          	li	a0,0
   14c44:	fadff06f          	j	14bf0 <__sprint_r.part.0+0xb0>
   14c48:	66d010ef          	jal	16ab4 <__sfvwrite_r>
   14c4c:	02c12083          	lw	ra,44(sp)
   14c50:	000b2423          	sw	zero,8(s6)
   14c54:	000b2223          	sw	zero,4(s6)
   14c58:	01012b03          	lw	s6,16(sp)
   14c5c:	03010113          	add	sp,sp,48
   14c60:	00008067          	ret

00014c64 <__sprint_r>:
   14c64:	00862703          	lw	a4,8(a2)
   14c68:	00070463          	beqz	a4,14c70 <__sprint_r+0xc>
   14c6c:	ed5ff06f          	j	14b40 <__sprint_r.part.0>
   14c70:	00062223          	sw	zero,4(a2)
   14c74:	00000513          	li	a0,0
   14c78:	00008067          	ret

00014c7c <_vfiprintf_r>:
   14c7c:	eb010113          	add	sp,sp,-336
   14c80:	14812423          	sw	s0,328(sp)
   14c84:	13312e23          	sw	s3,316(sp)
   14c88:	13812423          	sw	s8,296(sp)
   14c8c:	00050413          	mv	s0,a0
   14c90:	00058993          	mv	s3,a1
   14c94:	00060c13          	mv	s8,a2
   14c98:	00000593          	li	a1,0
   14c9c:	00800613          	li	a2,8
   14ca0:	05010513          	add	a0,sp,80
   14ca4:	13512a23          	sw	s5,308(sp)
   14ca8:	14112623          	sw	ra,332(sp)
   14cac:	00068a93          	mv	s5,a3
   14cb0:	9c4fc0ef          	jal	10e74 <memset>
   14cb4:	00040863          	beqz	s0,14cc4 <_vfiprintf_r+0x48>
   14cb8:	03442783          	lw	a5,52(s0)
   14cbc:	00079463          	bnez	a5,14cc4 <_vfiprintf_r+0x48>
   14cc0:	4980106f          	j	16158 <_vfiprintf_r+0x14dc>
   14cc4:	0649a703          	lw	a4,100(s3)
   14cc8:	00c99783          	lh	a5,12(s3)
   14ccc:	00177713          	and	a4,a4,1
   14cd0:	00071863          	bnez	a4,14ce0 <_vfiprintf_r+0x64>
   14cd4:	2007f713          	and	a4,a5,512
   14cd8:	00071463          	bnez	a4,14ce0 <_vfiprintf_r+0x64>
   14cdc:	0b40106f          	j	15d90 <_vfiprintf_r+0x1114>
   14ce0:	01279713          	sll	a4,a5,0x12
   14ce4:	02074663          	bltz	a4,14d10 <_vfiprintf_r+0x94>
   14ce8:	0649a703          	lw	a4,100(s3)
   14cec:	00002637          	lui	a2,0x2
   14cf0:	ffffe6b7          	lui	a3,0xffffe
   14cf4:	00c7e7b3          	or	a5,a5,a2
   14cf8:	fff68693          	add	a3,a3,-1 # ffffdfff <__BSS_END__+0xfffda0ef>
   14cfc:	01079793          	sll	a5,a5,0x10
   14d00:	4107d793          	sra	a5,a5,0x10
   14d04:	00d77733          	and	a4,a4,a3
   14d08:	00f99623          	sh	a5,12(s3)
   14d0c:	06e9a223          	sw	a4,100(s3)
   14d10:	0087f713          	and	a4,a5,8
   14d14:	2e070263          	beqz	a4,14ff8 <_vfiprintf_r+0x37c>
   14d18:	0109a703          	lw	a4,16(s3)
   14d1c:	2c070e63          	beqz	a4,14ff8 <_vfiprintf_r+0x37c>
   14d20:	01a7f713          	and	a4,a5,26
   14d24:	00a00693          	li	a3,10
   14d28:	2ed70a63          	beq	a4,a3,1501c <_vfiprintf_r+0x3a0>
   14d2c:	13412c23          	sw	s4,312(sp)
   14d30:	06c10a13          	add	s4,sp,108
   14d34:	14912223          	sw	s1,324(sp)
   14d38:	15212023          	sw	s2,320(sp)
   14d3c:	13612823          	sw	s6,304(sp)
   14d40:	13712623          	sw	s7,300(sp)
   14d44:	13912223          	sw	s9,292(sp)
   14d48:	13a12023          	sw	s10,288(sp)
   14d4c:	000c0c93          	mv	s9,s8
   14d50:	11b12e23          	sw	s11,284(sp)
   14d54:	07412023          	sw	s4,96(sp)
   14d58:	06012423          	sw	zero,104(sp)
   14d5c:	06012223          	sw	zero,100(sp)
   14d60:	00012a23          	sw	zero,20(sp)
   14d64:	02012623          	sw	zero,44(sp)
   14d68:	02012823          	sw	zero,48(sp)
   14d6c:	02012a23          	sw	zero,52(sp)
   14d70:	00012623          	sw	zero,12(sp)
   14d74:	d3818493          	add	s1,gp,-712 # 23708 <__global_locale>
   14d78:	02500913          	li	s2,37
   14d7c:	0000db97          	auipc	s7,0xd
   14d80:	2b8b8b93          	add	s7,s7,696 # 22034 <blanks.1+0x10>
   14d84:	0000db17          	auipc	s6,0xd
   14d88:	41cb0b13          	add	s6,s6,1052 # 221a0 <zeroes.0>
   14d8c:	000a0c13          	mv	s8,s4
   14d90:	000c8d93          	mv	s11,s9
   14d94:	0e44ad03          	lw	s10,228(s1)
   14d98:	50c030ef          	jal	182a4 <__locale_mb_cur_max>
   14d9c:	00050693          	mv	a3,a0
   14da0:	05010713          	add	a4,sp,80
   14da4:	000d8613          	mv	a2,s11
   14da8:	04810593          	add	a1,sp,72
   14dac:	00040513          	mv	a0,s0
   14db0:	000d00e7          	jalr	s10
   14db4:	2e050e63          	beqz	a0,150b0 <_vfiprintf_r+0x434>
   14db8:	2c054e63          	bltz	a0,15094 <_vfiprintf_r+0x418>
   14dbc:	04812783          	lw	a5,72(sp)
   14dc0:	01278663          	beq	a5,s2,14dcc <_vfiprintf_r+0x150>
   14dc4:	00ad8db3          	add	s11,s11,a0
   14dc8:	fcdff06f          	j	14d94 <_vfiprintf_r+0x118>
   14dcc:	00050d13          	mv	s10,a0
   14dd0:	419d87b3          	sub	a5,s11,s9
   14dd4:	2f9d9463          	bne	s11,s9,150bc <_vfiprintf_r+0x440>
   14dd8:	00000e13          	li	t3,0
   14ddc:	001dc683          	lbu	a3,1(s11)
   14de0:	001d8c93          	add	s9,s11,1
   14de4:	040101a3          	sb	zero,67(sp)
   14de8:	fff00713          	li	a4,-1
   14dec:	00000893          	li	a7,0
   14df0:	05a00d13          	li	s10,90
   14df4:	000e0d93          	mv	s11,t3
   14df8:	001c8c93          	add	s9,s9,1
   14dfc:	fe068793          	add	a5,a3,-32
   14e00:	04fd6663          	bltu	s10,a5,14e4c <_vfiprintf_r+0x1d0>
   14e04:	00279793          	sll	a5,a5,0x2
   14e08:	017787b3          	add	a5,a5,s7
   14e0c:	0007a783          	lw	a5,0(a5)
   14e10:	017787b3          	add	a5,a5,s7
   14e14:	00078067          	jr	a5
   14e18:	00000893          	li	a7,0
   14e1c:	fd068793          	add	a5,a3,-48
   14e20:	00900593          	li	a1,9
   14e24:	000cc683          	lbu	a3,0(s9)
   14e28:	00289613          	sll	a2,a7,0x2
   14e2c:	011608b3          	add	a7,a2,a7
   14e30:	00189893          	sll	a7,a7,0x1
   14e34:	011788b3          	add	a7,a5,a7
   14e38:	fd068793          	add	a5,a3,-48
   14e3c:	001c8c93          	add	s9,s9,1
   14e40:	fef5f2e3          	bgeu	a1,a5,14e24 <_vfiprintf_r+0x1a8>
   14e44:	fe068793          	add	a5,a3,-32
   14e48:	fafd7ee3          	bgeu	s10,a5,14e04 <_vfiprintf_r+0x188>
   14e4c:	000d8e13          	mv	t3,s11
   14e50:	2c068663          	beqz	a3,1511c <_vfiprintf_r+0x4a0>
   14e54:	0ad10623          	sb	a3,172(sp)
   14e58:	040101a3          	sb	zero,67(sp)
   14e5c:	00100e93          	li	t4,1
   14e60:	00100d13          	li	s10,1
   14e64:	0ac10813          	add	a6,sp,172
   14e68:	00012823          	sw	zero,16(sp)
   14e6c:	00000713          	li	a4,0
   14e70:	00000f93          	li	t6,0
   14e74:	06412603          	lw	a2,100(sp)
   14e78:	084e7293          	and	t0,t3,132
   14e7c:	06812783          	lw	a5,104(sp)
   14e80:	00160593          	add	a1,a2,1 # 2001 <exit-0xe093>
   14e84:	00058f13          	mv	t5,a1
   14e88:	00029663          	bnez	t0,14e94 <_vfiprintf_r+0x218>
   14e8c:	41d88db3          	sub	s11,a7,t4
   14e90:	47b046e3          	bgtz	s11,15afc <_vfiprintf_r+0xe80>
   14e94:	04314583          	lbu	a1,67(sp)
   14e98:	02058a63          	beqz	a1,14ecc <_vfiprintf_r+0x250>
   14e9c:	04310613          	add	a2,sp,67
   14ea0:	00178793          	add	a5,a5,1
   14ea4:	00100693          	li	a3,1
   14ea8:	00cc2023          	sw	a2,0(s8)
   14eac:	00dc2223          	sw	a3,4(s8)
   14eb0:	06f12423          	sw	a5,104(sp)
   14eb4:	07e12223          	sw	t5,100(sp)
   14eb8:	00700613          	li	a2,7
   14ebc:	35e64ce3          	blt	a2,t5,15a14 <_vfiprintf_r+0xd98>
   14ec0:	000f0613          	mv	a2,t5
   14ec4:	008c0c13          	add	s8,s8,8
   14ec8:	001f0f13          	add	t5,t5,1
   14ecc:	080f8063          	beqz	t6,14f4c <_vfiprintf_r+0x2d0>
   14ed0:	00200613          	li	a2,2
   14ed4:	00278793          	add	a5,a5,2
   14ed8:	04410693          	add	a3,sp,68
   14edc:	00cc2223          	sw	a2,4(s8)
   14ee0:	00dc2023          	sw	a3,0(s8)
   14ee4:	06f12423          	sw	a5,104(sp)
   14ee8:	07e12223          	sw	t5,100(sp)
   14eec:	00700613          	li	a2,7
   14ef0:	3be652e3          	bge	a2,t5,15a94 <_vfiprintf_r+0xe18>
   14ef4:	60078ae3          	beqz	a5,15d08 <_vfiprintf_r+0x108c>
   14ef8:	06010613          	add	a2,sp,96
   14efc:	00098593          	mv	a1,s3
   14f00:	00040513          	mv	a0,s0
   14f04:	03d12c23          	sw	t4,56(sp)
   14f08:	02e12423          	sw	a4,40(sp)
   14f0c:	03112223          	sw	a7,36(sp)
   14f10:	03012023          	sw	a6,32(sp)
   14f14:	00512e23          	sw	t0,28(sp)
   14f18:	01c12c23          	sw	t3,24(sp)
   14f1c:	c25ff0ef          	jal	14b40 <__sprint_r.part.0>
   14f20:	22051463          	bnez	a0,15148 <_vfiprintf_r+0x4cc>
   14f24:	06412603          	lw	a2,100(sp)
   14f28:	06812783          	lw	a5,104(sp)
   14f2c:	03812e83          	lw	t4,56(sp)
   14f30:	02812703          	lw	a4,40(sp)
   14f34:	02412883          	lw	a7,36(sp)
   14f38:	02012803          	lw	a6,32(sp)
   14f3c:	01c12283          	lw	t0,28(sp)
   14f40:	01812e03          	lw	t3,24(sp)
   14f44:	000a0c13          	mv	s8,s4
   14f48:	00160f13          	add	t5,a2,1
   14f4c:	08000593          	li	a1,128
   14f50:	06b286e3          	beq	t0,a1,157bc <_vfiprintf_r+0xb40>
   14f54:	41a70733          	sub	a4,a4,s10
   14f58:	1ae04ae3          	bgtz	a4,1590c <_vfiprintf_r+0xc90>
   14f5c:	00fd07b3          	add	a5,s10,a5
   14f60:	010c2023          	sw	a6,0(s8)
   14f64:	01ac2223          	sw	s10,4(s8)
   14f68:	06f12423          	sw	a5,104(sp)
   14f6c:	07e12223          	sw	t5,100(sp)
   14f70:	00700713          	li	a4,7
   14f74:	03e758e3          	bge	a4,t5,157a4 <_vfiprintf_r+0xb28>
   14f78:	24078063          	beqz	a5,151b8 <_vfiprintf_r+0x53c>
   14f7c:	06010613          	add	a2,sp,96
   14f80:	00098593          	mv	a1,s3
   14f84:	00040513          	mv	a0,s0
   14f88:	03d12023          	sw	t4,32(sp)
   14f8c:	01112e23          	sw	a7,28(sp)
   14f90:	01c12c23          	sw	t3,24(sp)
   14f94:	badff0ef          	jal	14b40 <__sprint_r.part.0>
   14f98:	1a051863          	bnez	a0,15148 <_vfiprintf_r+0x4cc>
   14f9c:	06812783          	lw	a5,104(sp)
   14fa0:	02012e83          	lw	t4,32(sp)
   14fa4:	01c12883          	lw	a7,28(sp)
   14fa8:	01812e03          	lw	t3,24(sp)
   14fac:	000a0c13          	mv	s8,s4
   14fb0:	004e7e13          	and	t3,t3,4
   14fb4:	000e0663          	beqz	t3,14fc0 <_vfiprintf_r+0x344>
   14fb8:	41d88db3          	sub	s11,a7,t4
   14fbc:	21b04a63          	bgtz	s11,151d0 <_vfiprintf_r+0x554>
   14fc0:	01d8d463          	bge	a7,t4,14fc8 <_vfiprintf_r+0x34c>
   14fc4:	000e8893          	mv	a7,t4
   14fc8:	00c12703          	lw	a4,12(sp)
   14fcc:	01170733          	add	a4,a4,a7
   14fd0:	00e12623          	sw	a4,12(sp)
   14fd4:	16079063          	bnez	a5,15134 <_vfiprintf_r+0x4b8>
   14fd8:	01012783          	lw	a5,16(sp)
   14fdc:	06012223          	sw	zero,100(sp)
   14fe0:	00078863          	beqz	a5,14ff0 <_vfiprintf_r+0x374>
   14fe4:	00078593          	mv	a1,a5
   14fe8:	00040513          	mv	a0,s0
   14fec:	ad0fc0ef          	jal	112bc <_free_r>
   14ff0:	000a0c13          	mv	s8,s4
   14ff4:	d9dff06f          	j	14d90 <_vfiprintf_r+0x114>
   14ff8:	00098593          	mv	a1,s3
   14ffc:	00040513          	mv	a0,s0
   15000:	7c9010ef          	jal	16fc8 <__swsetup_r>
   15004:	00050463          	beqz	a0,1500c <_vfiprintf_r+0x390>
   15008:	3840106f          	j	1638c <_vfiprintf_r+0x1710>
   1500c:	00c99783          	lh	a5,12(s3)
   15010:	00a00693          	li	a3,10
   15014:	01a7f713          	and	a4,a5,26
   15018:	d0d71ae3          	bne	a4,a3,14d2c <_vfiprintf_r+0xb0>
   1501c:	00e99703          	lh	a4,14(s3)
   15020:	d00746e3          	bltz	a4,14d2c <_vfiprintf_r+0xb0>
   15024:	0649a703          	lw	a4,100(s3)
   15028:	00177713          	and	a4,a4,1
   1502c:	00071863          	bnez	a4,1503c <_vfiprintf_r+0x3c0>
   15030:	2007f793          	and	a5,a5,512
   15034:	00079463          	bnez	a5,1503c <_vfiprintf_r+0x3c0>
   15038:	2ac0106f          	j	162e4 <_vfiprintf_r+0x1668>
   1503c:	000a8693          	mv	a3,s5
   15040:	000c0613          	mv	a2,s8
   15044:	00098593          	mv	a1,s3
   15048:	00040513          	mv	a0,s0
   1504c:	3f8010ef          	jal	16444 <__sbprintf>
   15050:	14c12083          	lw	ra,332(sp)
   15054:	14812403          	lw	s0,328(sp)
   15058:	00a12623          	sw	a0,12(sp)
   1505c:	00c12503          	lw	a0,12(sp)
   15060:	13c12983          	lw	s3,316(sp)
   15064:	13412a83          	lw	s5,308(sp)
   15068:	12812c03          	lw	s8,296(sp)
   1506c:	15010113          	add	sp,sp,336
   15070:	00008067          	ret
   15074:	000aa883          	lw	a7,0(s5)
   15078:	004a8a93          	add	s5,s5,4
   1507c:	3608cc63          	bltz	a7,153f4 <_vfiprintf_r+0x778>
   15080:	000cc683          	lbu	a3,0(s9)
   15084:	d75ff06f          	j	14df8 <_vfiprintf_r+0x17c>
   15088:	000cc683          	lbu	a3,0(s9)
   1508c:	020ded93          	or	s11,s11,32
   15090:	d69ff06f          	j	14df8 <_vfiprintf_r+0x17c>
   15094:	00800613          	li	a2,8
   15098:	00000593          	li	a1,0
   1509c:	05010513          	add	a0,sp,80
   150a0:	dd5fb0ef          	jal	10e74 <memset>
   150a4:	00100513          	li	a0,1
   150a8:	00ad8db3          	add	s11,s11,a0
   150ac:	ce9ff06f          	j	14d94 <_vfiprintf_r+0x118>
   150b0:	00050d13          	mv	s10,a0
   150b4:	419d87b3          	sub	a5,s11,s9
   150b8:	079d8263          	beq	s11,s9,1511c <_vfiprintf_r+0x4a0>
   150bc:	06812683          	lw	a3,104(sp)
   150c0:	06412703          	lw	a4,100(sp)
   150c4:	019c2023          	sw	s9,0(s8)
   150c8:	00d786b3          	add	a3,a5,a3
   150cc:	00170713          	add	a4,a4,1
   150d0:	00fc2223          	sw	a5,4(s8)
   150d4:	06d12423          	sw	a3,104(sp)
   150d8:	06e12223          	sw	a4,100(sp)
   150dc:	00700613          	li	a2,7
   150e0:	008c0c13          	add	s8,s8,8
   150e4:	02e65463          	bge	a2,a4,1510c <_vfiprintf_r+0x490>
   150e8:	38068ce3          	beqz	a3,15c80 <_vfiprintf_r+0x1004>
   150ec:	06010613          	add	a2,sp,96
   150f0:	00098593          	mv	a1,s3
   150f4:	00040513          	mv	a0,s0
   150f8:	00f12823          	sw	a5,16(sp)
   150fc:	a45ff0ef          	jal	14b40 <__sprint_r.part.0>
   15100:	01012783          	lw	a5,16(sp)
   15104:	04051c63          	bnez	a0,1515c <_vfiprintf_r+0x4e0>
   15108:	000a0c13          	mv	s8,s4
   1510c:	00c12703          	lw	a4,12(sp)
   15110:	00f707b3          	add	a5,a4,a5
   15114:	00f12623          	sw	a5,12(sp)
   15118:	cc0d10e3          	bnez	s10,14dd8 <_vfiprintf_r+0x15c>
   1511c:	06812783          	lw	a5,104(sp)
   15120:	00078463          	beqz	a5,15128 <_vfiprintf_r+0x4ac>
   15124:	22c0106f          	j	16350 <_vfiprintf_r+0x16d4>
   15128:	00c99783          	lh	a5,12(s3)
   1512c:	06012223          	sw	zero,100(sp)
   15130:	0300006f          	j	15160 <_vfiprintf_r+0x4e4>
   15134:	06010613          	add	a2,sp,96
   15138:	00098593          	mv	a1,s3
   1513c:	00040513          	mv	a0,s0
   15140:	a01ff0ef          	jal	14b40 <__sprint_r.part.0>
   15144:	e8050ae3          	beqz	a0,14fd8 <_vfiprintf_r+0x35c>
   15148:	01012783          	lw	a5,16(sp)
   1514c:	00078863          	beqz	a5,1515c <_vfiprintf_r+0x4e0>
   15150:	01012583          	lw	a1,16(sp)
   15154:	00040513          	mv	a0,s0
   15158:	964fc0ef          	jal	112bc <_free_r>
   1515c:	00c99783          	lh	a5,12(s3)
   15160:	0649a703          	lw	a4,100(s3)
   15164:	00177713          	and	a4,a4,1
   15168:	16070a63          	beqz	a4,152dc <_vfiprintf_r+0x660>
   1516c:	0407f793          	and	a5,a5,64
   15170:	14412483          	lw	s1,324(sp)
   15174:	14012903          	lw	s2,320(sp)
   15178:	13812a03          	lw	s4,312(sp)
   1517c:	13012b03          	lw	s6,304(sp)
   15180:	12c12b83          	lw	s7,300(sp)
   15184:	12412c83          	lw	s9,292(sp)
   15188:	12012d03          	lw	s10,288(sp)
   1518c:	11c12d83          	lw	s11,284(sp)
   15190:	00078463          	beqz	a5,15198 <_vfiprintf_r+0x51c>
   15194:	2180106f          	j	163ac <_vfiprintf_r+0x1730>
   15198:	14c12083          	lw	ra,332(sp)
   1519c:	14812403          	lw	s0,328(sp)
   151a0:	00c12503          	lw	a0,12(sp)
   151a4:	13c12983          	lw	s3,316(sp)
   151a8:	13412a83          	lw	s5,308(sp)
   151ac:	12812c03          	lw	s8,296(sp)
   151b0:	15010113          	add	sp,sp,336
   151b4:	00008067          	ret
   151b8:	06012223          	sw	zero,100(sp)
   151bc:	004e7e13          	and	t3,t3,4
   151c0:	240e0ee3          	beqz	t3,15c1c <_vfiprintf_r+0xfa0>
   151c4:	41d88db3          	sub	s11,a7,t4
   151c8:	25b05ae3          	blez	s11,15c1c <_vfiprintf_r+0xfa0>
   151cc:	000a0c13          	mv	s8,s4
   151d0:	01000713          	li	a4,16
   151d4:	06412683          	lw	a3,100(sp)
   151d8:	01b74463          	blt	a4,s11,151e0 <_vfiprintf_r+0x564>
   151dc:	1900106f          	j	1636c <_vfiprintf_r+0x16f0>
   151e0:	000a8713          	mv	a4,s5
   151e4:	0000d317          	auipc	t1,0xd
   151e8:	fcc30313          	add	t1,t1,-52 # 221b0 <blanks.1>
   151ec:	000c0593          	mv	a1,s8
   151f0:	000d8a93          	mv	s5,s11
   151f4:	01000813          	li	a6,16
   151f8:	00700d13          	li	s10,7
   151fc:	01112c23          	sw	a7,24(sp)
   15200:	01d12e23          	sw	t4,28(sp)
   15204:	00030c13          	mv	s8,t1
   15208:	00070d93          	mv	s11,a4
   1520c:	0180006f          	j	15224 <_vfiprintf_r+0x5a8>
   15210:	00268613          	add	a2,a3,2
   15214:	00858593          	add	a1,a1,8
   15218:	00070693          	mv	a3,a4
   1521c:	ff0a8a93          	add	s5,s5,-16
   15220:	05585a63          	bge	a6,s5,15274 <_vfiprintf_r+0x5f8>
   15224:	01078793          	add	a5,a5,16
   15228:	00168713          	add	a4,a3,1
   1522c:	0185a023          	sw	s8,0(a1)
   15230:	0105a223          	sw	a6,4(a1)
   15234:	06f12423          	sw	a5,104(sp)
   15238:	06e12223          	sw	a4,100(sp)
   1523c:	fced5ae3          	bge	s10,a4,15210 <_vfiprintf_r+0x594>
   15240:	56078663          	beqz	a5,157ac <_vfiprintf_r+0xb30>
   15244:	06010613          	add	a2,sp,96
   15248:	00098593          	mv	a1,s3
   1524c:	00040513          	mv	a0,s0
   15250:	8f1ff0ef          	jal	14b40 <__sprint_r.part.0>
   15254:	ee051ae3          	bnez	a0,15148 <_vfiprintf_r+0x4cc>
   15258:	06412683          	lw	a3,100(sp)
   1525c:	01000813          	li	a6,16
   15260:	ff0a8a93          	add	s5,s5,-16
   15264:	06812783          	lw	a5,104(sp)
   15268:	000a0593          	mv	a1,s4
   1526c:	00168613          	add	a2,a3,1
   15270:	fb584ae3          	blt	a6,s5,15224 <_vfiprintf_r+0x5a8>
   15274:	01812883          	lw	a7,24(sp)
   15278:	01c12e83          	lw	t4,28(sp)
   1527c:	000d8713          	mv	a4,s11
   15280:	000c0313          	mv	t1,s8
   15284:	000a8d93          	mv	s11,s5
   15288:	00058c13          	mv	s8,a1
   1528c:	00070a93          	mv	s5,a4
   15290:	01b787b3          	add	a5,a5,s11
   15294:	006c2023          	sw	t1,0(s8)
   15298:	01bc2223          	sw	s11,4(s8)
   1529c:	06f12423          	sw	a5,104(sp)
   152a0:	06c12223          	sw	a2,100(sp)
   152a4:	00700713          	li	a4,7
   152a8:	d0c75ce3          	bge	a4,a2,14fc0 <_vfiprintf_r+0x344>
   152ac:	160788e3          	beqz	a5,15c1c <_vfiprintf_r+0xfa0>
   152b0:	06010613          	add	a2,sp,96
   152b4:	00098593          	mv	a1,s3
   152b8:	00040513          	mv	a0,s0
   152bc:	01d12e23          	sw	t4,28(sp)
   152c0:	01112c23          	sw	a7,24(sp)
   152c4:	87dff0ef          	jal	14b40 <__sprint_r.part.0>
   152c8:	e80510e3          	bnez	a0,15148 <_vfiprintf_r+0x4cc>
   152cc:	06812783          	lw	a5,104(sp)
   152d0:	01c12e83          	lw	t4,28(sp)
   152d4:	01812883          	lw	a7,24(sp)
   152d8:	ce9ff06f          	j	14fc0 <_vfiprintf_r+0x344>
   152dc:	2007f713          	and	a4,a5,512
   152e0:	e80716e3          	bnez	a4,1516c <_vfiprintf_r+0x4f0>
   152e4:	0589a503          	lw	a0,88(s3)
   152e8:	b89fb0ef          	jal	10e70 <__retarget_lock_release_recursive>
   152ec:	00c99783          	lh	a5,12(s3)
   152f0:	e7dff06f          	j	1516c <_vfiprintf_r+0x4f0>
   152f4:	000aa803          	lw	a6,0(s5)
   152f8:	040101a3          	sb	zero,67(sp)
   152fc:	000d8e13          	mv	t3,s11
   15300:	004a8a93          	add	s5,s5,4
   15304:	68080ae3          	beqz	a6,16198 <_vfiprintf_r+0x151c>
   15308:	05300793          	li	a5,83
   1530c:	3cf68ce3          	beq	a3,a5,15ee4 <_vfiprintf_r+0x1268>
   15310:	010df793          	and	a5,s11,16
   15314:	3c0798e3          	bnez	a5,15ee4 <_vfiprintf_r+0x1268>
   15318:	00075463          	bgez	a4,15320 <_vfiprintf_r+0x6a4>
   1531c:	7fd0006f          	j	16318 <_vfiprintf_r+0x169c>
   15320:	00070613          	mv	a2,a4
   15324:	00080513          	mv	a0,a6
   15328:	00000593          	li	a1,0
   1532c:	03112223          	sw	a7,36(sp)
   15330:	00e12e23          	sw	a4,28(sp)
   15334:	01012c23          	sw	a6,24(sp)
   15338:	03b12023          	sw	s11,32(sp)
   1533c:	0e8020ef          	jal	17424 <memchr>
   15340:	00a12823          	sw	a0,16(sp)
   15344:	01812803          	lw	a6,24(sp)
   15348:	01c12703          	lw	a4,28(sp)
   1534c:	02012e03          	lw	t3,32(sp)
   15350:	02412883          	lw	a7,36(sp)
   15354:	00051463          	bnez	a0,1535c <_vfiprintf_r+0x6e0>
   15358:	7990006f          	j	162f0 <_vfiprintf_r+0x1674>
   1535c:	41050d33          	sub	s10,a0,a6
   15360:	fffd4e93          	not	t4,s10
   15364:	41fede93          	sra	t4,t4,0x1f
   15368:	01dd7eb3          	and	t4,s10,t4
   1536c:	00012823          	sw	zero,16(sp)
   15370:	6dd0006f          	j	1624c <_vfiprintf_r+0x15d0>
   15374:	04300793          	li	a5,67
   15378:	000d8e13          	mv	t3,s11
   1537c:	004a8d93          	add	s11,s5,4
   15380:	00f68663          	beq	a3,a5,1538c <_vfiprintf_r+0x710>
   15384:	010e7793          	and	a5,t3,16
   15388:	280788e3          	beqz	a5,15e18 <_vfiprintf_r+0x119c>
   1538c:	00800613          	li	a2,8
   15390:	00000593          	li	a1,0
   15394:	05810513          	add	a0,sp,88
   15398:	01112e23          	sw	a7,28(sp)
   1539c:	01c12c23          	sw	t3,24(sp)
   153a0:	ad5fb0ef          	jal	10e74 <memset>
   153a4:	000aa603          	lw	a2,0(s5)
   153a8:	0ac10593          	add	a1,sp,172
   153ac:	05810693          	add	a3,sp,88
   153b0:	00040513          	mv	a0,s0
   153b4:	00b12823          	sw	a1,16(sp)
   153b8:	6b0070ef          	jal	1ca68 <_wcrtomb_r>
   153bc:	fff00793          	li	a5,-1
   153c0:	01012583          	lw	a1,16(sp)
   153c4:	01812e03          	lw	t3,24(sp)
   153c8:	01c12883          	lw	a7,28(sp)
   153cc:	00050d13          	mv	s10,a0
   153d0:	00f51463          	bne	a0,a5,153d8 <_vfiprintf_r+0x75c>
   153d4:	0200106f          	j	163f4 <_vfiprintf_r+0x1778>
   153d8:	fff54e93          	not	t4,a0
   153dc:	41fede93          	sra	t4,t4,0x1f
   153e0:	01d57eb3          	and	t4,a0,t4
   153e4:	040101a3          	sb	zero,67(sp)
   153e8:	000d8a93          	mv	s5,s11
   153ec:	00058813          	mv	a6,a1
   153f0:	a79ff06f          	j	14e68 <_vfiprintf_r+0x1ec>
   153f4:	411008b3          	neg	a7,a7
   153f8:	000cc683          	lbu	a3,0(s9)
   153fc:	004ded93          	or	s11,s11,4
   15400:	9f9ff06f          	j	14df8 <_vfiprintf_r+0x17c>
   15404:	010dee13          	or	t3,s11,16
   15408:	020e7793          	and	a5,t3,32
   1540c:	0c0788e3          	beqz	a5,15cdc <_vfiprintf_r+0x1060>
   15410:	007a8a93          	add	s5,s5,7
   15414:	ff8afa93          	and	s5,s5,-8
   15418:	004aa683          	lw	a3,4(s5)
   1541c:	000aad83          	lw	s11,0(s5)
   15420:	008a8a93          	add	s5,s5,8
   15424:	00068d13          	mv	s10,a3
   15428:	3006c263          	bltz	a3,1572c <_vfiprintf_r+0xab0>
   1542c:	32074063          	bltz	a4,1574c <_vfiprintf_r+0xad0>
   15430:	01ade6b3          	or	a3,s11,s10
   15434:	f7fe7e13          	and	t3,t3,-129
   15438:	30069a63          	bnez	a3,1574c <_vfiprintf_r+0xad0>
   1543c:	68071ae3          	bnez	a4,162d0 <_vfiprintf_r+0x1654>
   15440:	04314783          	lbu	a5,67(sp)
   15444:	00012823          	sw	zero,16(sp)
   15448:	00000e93          	li	t4,0
   1544c:	00000d13          	li	s10,0
   15450:	11010813          	add	a6,sp,272
   15454:	00078463          	beqz	a5,1545c <_vfiprintf_r+0x7e0>
   15458:	001e8e93          	add	t4,t4,1
   1545c:	002e7f93          	and	t6,t3,2
   15460:	a00f8ae3          	beqz	t6,14e74 <_vfiprintf_r+0x1f8>
   15464:	002e8e93          	add	t4,t4,2
   15468:	00200f93          	li	t6,2
   1546c:	a09ff06f          	j	14e74 <_vfiprintf_r+0x1f8>
   15470:	000cc683          	lbu	a3,0(s9)
   15474:	06800793          	li	a5,104
   15478:	4ef686e3          	beq	a3,a5,16164 <_vfiprintf_r+0x14e8>
   1547c:	040ded93          	or	s11,s11,64
   15480:	979ff06f          	j	14df8 <_vfiprintf_r+0x17c>
   15484:	010de613          	or	a2,s11,16
   15488:	02067793          	and	a5,a2,32
   1548c:	000780e3          	beqz	a5,15c8c <_vfiprintf_r+0x1010>
   15490:	007a8a93          	add	s5,s5,7
   15494:	ff8afa93          	and	s5,s5,-8
   15498:	000aad83          	lw	s11,0(s5)
   1549c:	004aad03          	lw	s10,4(s5)
   154a0:	008a8a93          	add	s5,s5,8
   154a4:	040101a3          	sb	zero,67(sp)
   154a8:	00060e13          	mv	t3,a2
   154ac:	2a074063          	bltz	a4,1574c <_vfiprintf_r+0xad0>
   154b0:	01ade6b3          	or	a3,s11,s10
   154b4:	f7f67e13          	and	t3,a2,-129
   154b8:	28069a63          	bnez	a3,1574c <_vfiprintf_r+0xad0>
   154bc:	00100793          	li	a5,1
   154c0:	06071e63          	bnez	a4,1553c <_vfiprintf_r+0x8c0>
   154c4:	f6079ee3          	bnez	a5,15440 <_vfiprintf_r+0x7c4>
   154c8:	00167d13          	and	s10,a2,1
   154cc:	0a0d0ce3          	beqz	s10,15d84 <_vfiprintf_r+0x1108>
   154d0:	03000793          	li	a5,48
   154d4:	10f107a3          	sb	a5,271(sp)
   154d8:	000d0e93          	mv	t4,s10
   154dc:	10f10813          	add	a6,sp,271
   154e0:	2980006f          	j	15778 <_vfiprintf_r+0xafc>
   154e4:	02b00793          	li	a5,43
   154e8:	000cc683          	lbu	a3,0(s9)
   154ec:	04f101a3          	sb	a5,67(sp)
   154f0:	909ff06f          	j	14df8 <_vfiprintf_r+0x17c>
   154f4:	010de693          	or	a3,s11,16
   154f8:	0206f793          	and	a5,a3,32
   154fc:	7a078c63          	beqz	a5,15cb4 <_vfiprintf_r+0x1038>
   15500:	007a8a93          	add	s5,s5,7
   15504:	ff8afa93          	and	s5,s5,-8
   15508:	000aa783          	lw	a5,0(s5)
   1550c:	004aa583          	lw	a1,4(s5)
   15510:	008a8a93          	add	s5,s5,8
   15514:	040101a3          	sb	zero,67(sp)
   15518:	bff6fe13          	and	t3,a3,-1025
   1551c:	02074c63          	bltz	a4,15554 <_vfiprintf_r+0x8d8>
   15520:	00b7e633          	or	a2,a5,a1
   15524:	b7f6f693          	and	a3,a3,-1153
   15528:	420610e3          	bnez	a2,16148 <_vfiprintf_r+0x14cc>
   1552c:	000e0613          	mv	a2,t3
   15530:	00000793          	li	a5,0
   15534:	00068e13          	mv	t3,a3
   15538:	f80706e3          	beqz	a4,154c4 <_vfiprintf_r+0x848>
   1553c:	00100693          	li	a3,1
   15540:	58d788e3          	beq	a5,a3,162d0 <_vfiprintf_r+0x1654>
   15544:	00200693          	li	a3,2
   15548:	46d786e3          	beq	a5,a3,161b4 <_vfiprintf_r+0x1538>
   1554c:	00000793          	li	a5,0
